
SHA-3_STM32.elf:     file format elf32-littlearm

Sections:
Idx Name          Size      VMA       LMA       File off  Algn
  0 .isr_vector   0000010c  08000000  08000000  00010000  2**0
                  CONTENTS, ALLOC, LOAD, READONLY, DATA
  1 .text         000014dc  0800010c  0800010c  0001010c  2**2
                  CONTENTS, ALLOC, LOAD, READONLY, CODE
  2 .rodata       0000064c  080015e8  080015e8  000115e8  2**3
                  CONTENTS, ALLOC, LOAD, READONLY, DATA
  3 .ARM.extab    00000000  08001c34  08001c34  0002000c  2**0
                  CONTENTS
  4 .ARM          00000000  08001c34  08001c34  0002000c  2**0
                  CONTENTS
  5 .preinit_array 00000000  08001c34  08001c34  0002000c  2**0
                  CONTENTS, ALLOC, LOAD, DATA
  6 .init_array   00000004  08001c34  08001c34  00011c34  2**2
                  CONTENTS, ALLOC, LOAD, DATA
  7 .fini_array   00000004  08001c38  08001c38  00011c38  2**2
                  CONTENTS, ALLOC, LOAD, DATA
  8 .data         0000000c  20000000  08001c3c  00020000  2**2
                  CONTENTS, ALLOC, LOAD, DATA
  9 .bss          00000020  2000000c  08001c48  0002000c  2**2
                  ALLOC
 10 ._user_heap_stack 00000604  2000002c  08001c48  0002002c  2**0
                  ALLOC
 11 .ARM.attributes 00000029  00000000  00000000  0002000c  2**0
                  CONTENTS, READONLY
 12 .debug_info   00003352  00000000  00000000  00020035  2**0
                  CONTENTS, READONLY, DEBUGGING
 13 .debug_abbrev 00000dd7  00000000  00000000  00023387  2**0
                  CONTENTS, READONLY, DEBUGGING
 14 .debug_aranges 000003e8  00000000  00000000  00024160  2**3
                  CONTENTS, READONLY, DEBUGGING
 15 .debug_ranges 00000360  00000000  00000000  00024548  2**3
                  CONTENTS, READONLY, DEBUGGING
 16 .debug_macro  00015edd  00000000  00000000  000248a8  2**0
                  CONTENTS, READONLY, DEBUGGING
 17 .debug_line   00003b2c  00000000  00000000  0003a785  2**0
                  CONTENTS, READONLY, DEBUGGING
 18 .debug_str    0007e720  00000000  00000000  0003e2b1  2**0
                  CONTENTS, READONLY, DEBUGGING
 19 .comment      0000007b  00000000  00000000  000bc9d1  2**0
                  CONTENTS, READONLY
 20 .debug_frame  00000dfc  00000000  00000000  000bca4c  2**2
                  CONTENTS, READONLY, DEBUGGING

Disassembly of section .text:

0800010c <__do_global_dtors_aux>:
 800010c:	b510      	push	{r4, lr}
 800010e:	4c05      	ldr	r4, [pc, #20]	; (8000124 <__do_global_dtors_aux+0x18>)
 8000110:	7823      	ldrb	r3, [r4, #0]
 8000112:	b933      	cbnz	r3, 8000122 <__do_global_dtors_aux+0x16>
 8000114:	4b04      	ldr	r3, [pc, #16]	; (8000128 <__do_global_dtors_aux+0x1c>)
 8000116:	b113      	cbz	r3, 800011e <__do_global_dtors_aux+0x12>
 8000118:	4804      	ldr	r0, [pc, #16]	; (800012c <__do_global_dtors_aux+0x20>)
 800011a:	f3af 8000 	nop.w
 800011e:	2301      	movs	r3, #1
 8000120:	7023      	strb	r3, [r4, #0]
 8000122:	bd10      	pop	{r4, pc}
 8000124:	2000000c 	.word	0x2000000c
 8000128:	00000000 	.word	0x00000000
 800012c:	080015d0 	.word	0x080015d0

08000130 <frame_dummy>:
 8000130:	b508      	push	{r3, lr}
 8000132:	4b03      	ldr	r3, [pc, #12]	; (8000140 <frame_dummy+0x10>)
 8000134:	b11b      	cbz	r3, 800013e <frame_dummy+0xe>
 8000136:	4903      	ldr	r1, [pc, #12]	; (8000144 <frame_dummy+0x14>)
 8000138:	4803      	ldr	r0, [pc, #12]	; (8000148 <frame_dummy+0x18>)
 800013a:	f3af 8000 	nop.w
 800013e:	bd08      	pop	{r3, pc}
 8000140:	00000000 	.word	0x00000000
 8000144:	20000010 	.word	0x20000010
 8000148:	080015d0 	.word	0x080015d0

0800014c <delayMilliseconds>:

/* Private function prototypes -----------------------------------------------*/
void SystemClock_Config(void);
static void MX_GPIO_Init(void);

void delayMilliseconds(volatile uint32_t milliseconds) {
 800014c:	b480      	push	{r7}
 800014e:	b085      	sub	sp, #20
 8000150:	af00      	add	r7, sp, #0
 8000152:	6078      	str	r0, [r7, #4]
    // Calculate the number of cycles for 1ms delay (assuming a 16MHz clock)
    uint32_t ticks = SystemCoreClock / 1000U;
 8000154:	4b0e      	ldr	r3, [pc, #56]	; (8000190 <delayMilliseconds+0x44>)
 8000156:	681b      	ldr	r3, [r3, #0]
 8000158:	4a0e      	ldr	r2, [pc, #56]	; (8000194 <delayMilliseconds+0x48>)
 800015a:	fba2 2303 	umull	r2, r3, r2, r3
 800015e:	099b      	lsrs	r3, r3, #6
 8000160:	60bb      	str	r3, [r7, #8]

    // Delay loop
    while (milliseconds > 0) {
 8000162:	e00d      	b.n	8000180 <delayMilliseconds+0x34>
        for (uint32_t i = 0; i < ticks; ++i) {
 8000164:	2300      	movs	r3, #0
 8000166:	60fb      	str	r3, [r7, #12]
 8000168:	e003      	b.n	8000172 <delayMilliseconds+0x26>
            __NOP(); // No operation to consume time
 800016a:	bf00      	nop
        for (uint32_t i = 0; i < ticks; ++i) {
 800016c:	68fb      	ldr	r3, [r7, #12]
 800016e:	3301      	adds	r3, #1
 8000170:	60fb      	str	r3, [r7, #12]
 8000172:	68fa      	ldr	r2, [r7, #12]
 8000174:	68bb      	ldr	r3, [r7, #8]
 8000176:	429a      	cmp	r2, r3
 8000178:	d3f7      	bcc.n	800016a <delayMilliseconds+0x1e>
        }
        milliseconds--;
 800017a:	687b      	ldr	r3, [r7, #4]
 800017c:	3b01      	subs	r3, #1
 800017e:	607b      	str	r3, [r7, #4]
    while (milliseconds > 0) {
 8000180:	687b      	ldr	r3, [r7, #4]
 8000182:	2b00      	cmp	r3, #0
 8000184:	d1ee      	bne.n	8000164 <delayMilliseconds+0x18>
    }
}
 8000186:	bf00      	nop
 8000188:	3714      	adds	r7, #20
 800018a:	46bd      	mov	sp, r7
 800018c:	bc80      	pop	{r7}
 800018e:	4770      	bx	lr
 8000190:	20000000 	.word	0x20000000
 8000194:	10624dd3 	.word	0x10624dd3

08000198 <test_hexdigit>:

static int test_hexdigit(char ch)
{
 8000198:	b480      	push	{r7}
 800019a:	b083      	sub	sp, #12
 800019c:	af00      	add	r7, sp, #0
 800019e:	4603      	mov	r3, r0
 80001a0:	71fb      	strb	r3, [r7, #7]
    if (ch >= '0' && ch <= '9')
 80001a2:	79fb      	ldrb	r3, [r7, #7]
 80001a4:	2b2f      	cmp	r3, #47	; 0x2f
 80001a6:	d905      	bls.n	80001b4 <test_hexdigit+0x1c>
 80001a8:	79fb      	ldrb	r3, [r7, #7]
 80001aa:	2b39      	cmp	r3, #57	; 0x39
 80001ac:	d802      	bhi.n	80001b4 <test_hexdigit+0x1c>
        return  ch - '0';
 80001ae:	79fb      	ldrb	r3, [r7, #7]
 80001b0:	3b30      	subs	r3, #48	; 0x30
 80001b2:	e013      	b.n	80001dc <test_hexdigit+0x44>
    if (ch >= 'A' && ch <= 'F')
 80001b4:	79fb      	ldrb	r3, [r7, #7]
 80001b6:	2b40      	cmp	r3, #64	; 0x40
 80001b8:	d905      	bls.n	80001c6 <test_hexdigit+0x2e>
 80001ba:	79fb      	ldrb	r3, [r7, #7]
 80001bc:	2b46      	cmp	r3, #70	; 0x46
 80001be:	d802      	bhi.n	80001c6 <test_hexdigit+0x2e>
        return  ch - 'A' + 10;
 80001c0:	79fb      	ldrb	r3, [r7, #7]
 80001c2:	3b37      	subs	r3, #55	; 0x37
 80001c4:	e00a      	b.n	80001dc <test_hexdigit+0x44>
    if (ch >= 'a' && ch <= 'f')
 80001c6:	79fb      	ldrb	r3, [r7, #7]
 80001c8:	2b60      	cmp	r3, #96	; 0x60
 80001ca:	d905      	bls.n	80001d8 <test_hexdigit+0x40>
 80001cc:	79fb      	ldrb	r3, [r7, #7]
 80001ce:	2b66      	cmp	r3, #102	; 0x66
 80001d0:	d802      	bhi.n	80001d8 <test_hexdigit+0x40>
        return  ch - 'a' + 10;
 80001d2:	79fb      	ldrb	r3, [r7, #7]
 80001d4:	3b57      	subs	r3, #87	; 0x57
 80001d6:	e001      	b.n	80001dc <test_hexdigit+0x44>
    return -1;
 80001d8:	f04f 33ff 	mov.w	r3, #4294967295
}
 80001dc:	4618      	mov	r0, r3
 80001de:	370c      	adds	r7, #12
 80001e0:	46bd      	mov	sp, r7
 80001e2:	bc80      	pop	{r7}
 80001e4:	4770      	bx	lr

080001e6 <test_readhex>:

static int test_readhex(uint8_t *buf, const char *str, int maxbytes)
{
 80001e6:	b580      	push	{r7, lr}
 80001e8:	b088      	sub	sp, #32
 80001ea:	af00      	add	r7, sp, #0
 80001ec:	60f8      	str	r0, [r7, #12]
 80001ee:	60b9      	str	r1, [r7, #8]
 80001f0:	607a      	str	r2, [r7, #4]
    int i, h, l;

    for (i = 0; i < maxbytes; i++) {
 80001f2:	2300      	movs	r3, #0
 80001f4:	61fb      	str	r3, [r7, #28]
 80001f6:	e02c      	b.n	8000252 <test_readhex+0x6c>
        h = test_hexdigit(str[2 * i]);
 80001f8:	69fb      	ldr	r3, [r7, #28]
 80001fa:	005b      	lsls	r3, r3, #1
 80001fc:	461a      	mov	r2, r3
 80001fe:	68bb      	ldr	r3, [r7, #8]
 8000200:	4413      	add	r3, r2
 8000202:	781b      	ldrb	r3, [r3, #0]
 8000204:	4618      	mov	r0, r3
 8000206:	f7ff ffc7 	bl	8000198 <test_hexdigit>
 800020a:	61b8      	str	r0, [r7, #24]
        if (h < 0)
 800020c:	69bb      	ldr	r3, [r7, #24]
 800020e:	2b00      	cmp	r3, #0
 8000210:	da01      	bge.n	8000216 <test_readhex+0x30>
            return i;
 8000212:	69fb      	ldr	r3, [r7, #28]
 8000214:	e022      	b.n	800025c <test_readhex+0x76>
        l = test_hexdigit(str[2 * i + 1]);
 8000216:	69fb      	ldr	r3, [r7, #28]
 8000218:	005b      	lsls	r3, r3, #1
 800021a:	3301      	adds	r3, #1
 800021c:	68ba      	ldr	r2, [r7, #8]
 800021e:	4413      	add	r3, r2
 8000220:	781b      	ldrb	r3, [r3, #0]
 8000222:	4618      	mov	r0, r3
 8000224:	f7ff ffb8 	bl	8000198 <test_hexdigit>
 8000228:	6178      	str	r0, [r7, #20]
        if (l < 0)
 800022a:	697b      	ldr	r3, [r7, #20]
 800022c:	2b00      	cmp	r3, #0
 800022e:	da01      	bge.n	8000234 <test_readhex+0x4e>
            return i;
 8000230:	69fb      	ldr	r3, [r7, #28]
 8000232:	e013      	b.n	800025c <test_readhex+0x76>
        buf[i] = (h << 4) + l;
 8000234:	69bb      	ldr	r3, [r7, #24]
 8000236:	b2db      	uxtb	r3, r3
 8000238:	011b      	lsls	r3, r3, #4
 800023a:	b2d9      	uxtb	r1, r3
 800023c:	697b      	ldr	r3, [r7, #20]
 800023e:	b2da      	uxtb	r2, r3
 8000240:	69fb      	ldr	r3, [r7, #28]
 8000242:	68f8      	ldr	r0, [r7, #12]
 8000244:	4403      	add	r3, r0
 8000246:	440a      	add	r2, r1
 8000248:	b2d2      	uxtb	r2, r2
 800024a:	701a      	strb	r2, [r3, #0]
    for (i = 0; i < maxbytes; i++) {
 800024c:	69fb      	ldr	r3, [r7, #28]
 800024e:	3301      	adds	r3, #1
 8000250:	61fb      	str	r3, [r7, #28]
 8000252:	69fa      	ldr	r2, [r7, #28]
 8000254:	687b      	ldr	r3, [r7, #4]
 8000256:	429a      	cmp	r2, r3
 8000258:	dbce      	blt.n	80001f8 <test_readhex+0x12>
    }

    return i;
 800025a:	69fb      	ldr	r3, [r7, #28]
}
 800025c:	4618      	mov	r0, r3
 800025e:	3720      	adds	r7, #32
 8000260:	46bd      	mov	sp, r7
 8000262:	bd80      	pop	{r7, pc}

08000264 <test_sha3>:

int test_sha3()
{
 8000264:	b5b0      	push	{r4, r5, r7, lr}
 8000266:	b0ec      	sub	sp, #432	; 0x1b0
 8000268:	af00      	add	r7, sp, #0
    // message / digest pairs, lifted from ShortMsgKAT_SHA3-xxx.txt files
    // in the official package: https://github.com/gvanas/KeccakCodePackage

    const char *testvec[][2] = {
 800026a:	4b38      	ldr	r3, [pc, #224]	; (800034c <test_sha3+0xe8>)
 800026c:	f507 74c0 	add.w	r4, r7, #384	; 0x180
 8000270:	461d      	mov	r5, r3
 8000272:	cd0f      	ldmia	r5!, {r0, r1, r2, r3}
 8000274:	c40f      	stmia	r4!, {r0, r1, r2, r3}
 8000276:	e895 000f 	ldmia.w	r5, {r0, r1, r2, r3}
 800027a:	e884 000f 	stmia.w	r4, {r0, r1, r2, r3}
    };

    int i, fails, msg_len, sha_len;
    uint8_t sha[64], buf[64], msg[256];

    fails = 0;
 800027e:	2300      	movs	r3, #0
 8000280:	f8c7 31a8 	str.w	r3, [r7, #424]	; 0x1a8
    for (i = 0; i < 4; i++) {
 8000284:	2300      	movs	r3, #0
 8000286:	f8c7 31ac 	str.w	r3, [r7, #428]	; 0x1ac
 800028a:	e053      	b.n	8000334 <test_sha3+0xd0>

        memset(sha, 0, sizeof(sha));
 800028c:	f507 73a0 	add.w	r3, r7, #320	; 0x140
 8000290:	2240      	movs	r2, #64	; 0x40
 8000292:	2100      	movs	r1, #0
 8000294:	4618      	mov	r0, r3
 8000296:	f001 f993 	bl	80015c0 <memset>
        memset(buf, 0, sizeof(buf));
 800029a:	f507 7380 	add.w	r3, r7, #256	; 0x100
 800029e:	2240      	movs	r2, #64	; 0x40
 80002a0:	2100      	movs	r1, #0
 80002a2:	4618      	mov	r0, r3
 80002a4:	f001 f98c 	bl	80015c0 <memset>
        memset(msg, 0, sizeof(msg));
 80002a8:	463b      	mov	r3, r7
 80002aa:	f44f 7280 	mov.w	r2, #256	; 0x100
 80002ae:	2100      	movs	r1, #0
 80002b0:	4618      	mov	r0, r3
 80002b2:	f001 f985 	bl	80015c0 <memset>

        msg_len = test_readhex(msg, testvec[i][0], sizeof(msg));
 80002b6:	f8d7 31ac 	ldr.w	r3, [r7, #428]	; 0x1ac
 80002ba:	00db      	lsls	r3, r3, #3
 80002bc:	f507 72d8 	add.w	r2, r7, #432	; 0x1b0
 80002c0:	4413      	add	r3, r2
 80002c2:	f853 1c30 	ldr.w	r1, [r3, #-48]
 80002c6:	463b      	mov	r3, r7
 80002c8:	f44f 7280 	mov.w	r2, #256	; 0x100
 80002cc:	4618      	mov	r0, r3
 80002ce:	f7ff ff8a 	bl	80001e6 <test_readhex>
 80002d2:	f8c7 01a4 	str.w	r0, [r7, #420]	; 0x1a4
        sha_len = test_readhex(sha, testvec[i][1], sizeof(sha));
 80002d6:	f8d7 31ac 	ldr.w	r3, [r7, #428]	; 0x1ac
 80002da:	00db      	lsls	r3, r3, #3
 80002dc:	f507 72d8 	add.w	r2, r7, #432	; 0x1b0
 80002e0:	4413      	add	r3, r2
 80002e2:	f853 1c2c 	ldr.w	r1, [r3, #-44]
 80002e6:	f507 73a0 	add.w	r3, r7, #320	; 0x140
 80002ea:	2240      	movs	r2, #64	; 0x40
 80002ec:	4618      	mov	r0, r3
 80002ee:	f7ff ff7a 	bl	80001e6 <test_readhex>
 80002f2:	f8c7 01a0 	str.w	r0, [r7, #416]	; 0x1a0

        sha3(msg, msg_len, buf, sha_len);
 80002f6:	f8d7 11a4 	ldr.w	r1, [r7, #420]	; 0x1a4
 80002fa:	f507 7280 	add.w	r2, r7, #256	; 0x100
 80002fe:	4638      	mov	r0, r7
 8000300:	f8d7 31a0 	ldr.w	r3, [r7, #416]	; 0x1a0
 8000304:	f000 fb48 	bl	8000998 <sha3>

        if (memcmp(sha, buf, sha_len) != 0) {
 8000308:	f8d7 21a0 	ldr.w	r2, [r7, #416]	; 0x1a0
 800030c:	f507 7180 	add.w	r1, r7, #256	; 0x100
 8000310:	f507 73a0 	add.w	r3, r7, #320	; 0x140
 8000314:	4618      	mov	r0, r3
 8000316:	f001 f939 	bl	800158c <memcmp>
 800031a:	4603      	mov	r3, r0
 800031c:	2b00      	cmp	r3, #0
 800031e:	d004      	beq.n	800032a <test_sha3+0xc6>
            fails++;
 8000320:	f8d7 31a8 	ldr.w	r3, [r7, #424]	; 0x1a8
 8000324:	3301      	adds	r3, #1
 8000326:	f8c7 31a8 	str.w	r3, [r7, #424]	; 0x1a8
    for (i = 0; i < 4; i++) {
 800032a:	f8d7 31ac 	ldr.w	r3, [r7, #428]	; 0x1ac
 800032e:	3301      	adds	r3, #1
 8000330:	f8c7 31ac 	str.w	r3, [r7, #428]	; 0x1ac
 8000334:	f8d7 31ac 	ldr.w	r3, [r7, #428]	; 0x1ac
 8000338:	2b03      	cmp	r3, #3
 800033a:	dda7      	ble.n	800028c <test_sha3+0x28>
        }
    }

    return fails;
 800033c:	f8d7 31a8 	ldr.w	r3, [r7, #424]	; 0x1a8
}
 8000340:	4618      	mov	r0, r3
 8000342:	f507 77d8 	add.w	r7, r7, #432	; 0x1b0
 8000346:	46bd      	mov	sp, r7
 8000348:	bdb0      	pop	{r4, r5, r7, pc}
 800034a:	bf00      	nop
 800034c:	08001a6c 	.word	0x08001a6c

08000350 <main>:
/**
  * @brief  The application entry point.
  * @retval int
  */
int main(void)
{
 8000350:	b580      	push	{r7, lr}
 8000352:	af00      	add	r7, sp, #0


  HAL_Init();
 8000354:	f000 fbc6 	bl	8000ae4 <HAL_Init>
  SystemClock_Config();
 8000358:	f000 f809 	bl	800036e <SystemClock_Config>
  MX_GPIO_Init();
 800035c:	f000 f842 	bl	80003e4 <MX_GPIO_Init>


  while (1)
  {

	  if(test_sha3());
 8000360:	f7ff ff80 	bl	8000264 <test_sha3>

	  delayMilliseconds(500);
 8000364:	f44f 70fa 	mov.w	r0, #500	; 0x1f4
 8000368:	f7ff fef0 	bl	800014c <delayMilliseconds>
	  if(test_sha3());
 800036c:	e7f8      	b.n	8000360 <main+0x10>

0800036e <SystemClock_Config>:
/**
  * @brief System Clock Configuration
  * @retval None
  */
void SystemClock_Config(void)
{
 800036e:	b580      	push	{r7, lr}
 8000370:	b090      	sub	sp, #64	; 0x40
 8000372:	af00      	add	r7, sp, #0
  RCC_OscInitTypeDef RCC_OscInitStruct = {0};
 8000374:	f107 0318 	add.w	r3, r7, #24
 8000378:	2228      	movs	r2, #40	; 0x28
 800037a:	2100      	movs	r1, #0
 800037c:	4618      	mov	r0, r3
 800037e:	f001 f91f 	bl	80015c0 <memset>
  RCC_ClkInitTypeDef RCC_ClkInitStruct = {0};
 8000382:	1d3b      	adds	r3, r7, #4
 8000384:	2200      	movs	r2, #0
 8000386:	601a      	str	r2, [r3, #0]
 8000388:	605a      	str	r2, [r3, #4]
 800038a:	609a      	str	r2, [r3, #8]
 800038c:	60da      	str	r2, [r3, #12]
 800038e:	611a      	str	r2, [r3, #16]

  /** Initializes the RCC Oscillators according to the specified parameters
  * in the RCC_OscInitTypeDef structure.
  */
  RCC_OscInitStruct.OscillatorType = RCC_OSCILLATORTYPE_HSI;
 8000390:	2302      	movs	r3, #2
 8000392:	61bb      	str	r3, [r7, #24]
  RCC_OscInitStruct.HSIState = RCC_HSI_ON;
 8000394:	2301      	movs	r3, #1
 8000396:	62bb      	str	r3, [r7, #40]	; 0x28
  RCC_OscInitStruct.HSICalibrationValue = RCC_HSICALIBRATION_DEFAULT;
 8000398:	2310      	movs	r3, #16
 800039a:	62fb      	str	r3, [r7, #44]	; 0x2c
  RCC_OscInitStruct.PLL.PLLState = RCC_PLL_NONE;
 800039c:	2300      	movs	r3, #0
 800039e:	637b      	str	r3, [r7, #52]	; 0x34
  if (HAL_RCC_OscConfig(&RCC_OscInitStruct) != HAL_OK)
 80003a0:	f107 0318 	add.w	r3, r7, #24
 80003a4:	4618      	mov	r0, r3
 80003a6:	f000 fce3 	bl	8000d70 <HAL_RCC_OscConfig>
 80003aa:	4603      	mov	r3, r0
 80003ac:	2b00      	cmp	r3, #0
 80003ae:	d001      	beq.n	80003b4 <SystemClock_Config+0x46>
  {
    Error_Handler();
 80003b0:	f000 f82e 	bl	8000410 <Error_Handler>
  }
  /** Initializes the CPU, AHB and APB buses clocks
  */
  RCC_ClkInitStruct.ClockType = RCC_CLOCKTYPE_HCLK|RCC_CLOCKTYPE_SYSCLK
 80003b4:	230f      	movs	r3, #15
 80003b6:	607b      	str	r3, [r7, #4]
                              |RCC_CLOCKTYPE_PCLK1|RCC_CLOCKTYPE_PCLK2;
  RCC_ClkInitStruct.SYSCLKSource = RCC_SYSCLKSOURCE_HSI;
 80003b8:	2300      	movs	r3, #0
 80003ba:	60bb      	str	r3, [r7, #8]
  RCC_ClkInitStruct.AHBCLKDivider = RCC_SYSCLK_DIV1;
 80003bc:	2300      	movs	r3, #0
 80003be:	60fb      	str	r3, [r7, #12]
  RCC_ClkInitStruct.APB1CLKDivider = RCC_HCLK_DIV1;
 80003c0:	2300      	movs	r3, #0
 80003c2:	613b      	str	r3, [r7, #16]
  RCC_ClkInitStruct.APB2CLKDivider = RCC_HCLK_DIV1;
 80003c4:	2300      	movs	r3, #0
 80003c6:	617b      	str	r3, [r7, #20]

  if (HAL_RCC_ClockConfig(&RCC_ClkInitStruct, FLASH_LATENCY_0) != HAL_OK)
 80003c8:	1d3b      	adds	r3, r7, #4
 80003ca:	2100      	movs	r1, #0
 80003cc:	4618      	mov	r0, r3
 80003ce:	f000 ff4f 	bl	8001270 <HAL_RCC_ClockConfig>
 80003d2:	4603      	mov	r3, r0
 80003d4:	2b00      	cmp	r3, #0
 80003d6:	d001      	beq.n	80003dc <SystemClock_Config+0x6e>
  {
    Error_Handler();
 80003d8:	f000 f81a 	bl	8000410 <Error_Handler>
  }
}
 80003dc:	bf00      	nop
 80003de:	3740      	adds	r7, #64	; 0x40
 80003e0:	46bd      	mov	sp, r7
 80003e2:	bd80      	pop	{r7, pc}

080003e4 <MX_GPIO_Init>:
  * @brief GPIO Initialization Function
  * @param None
  * @retval None
  */
static void MX_GPIO_Init(void)
{
 80003e4:	b480      	push	{r7}
 80003e6:	b083      	sub	sp, #12
 80003e8:	af00      	add	r7, sp, #0

  /* GPIO Ports Clock Enable */
  __HAL_RCC_GPIOA_CLK_ENABLE();
 80003ea:	4b08      	ldr	r3, [pc, #32]	; (800040c <MX_GPIO_Init+0x28>)
 80003ec:	699b      	ldr	r3, [r3, #24]
 80003ee:	4a07      	ldr	r2, [pc, #28]	; (800040c <MX_GPIO_Init+0x28>)
 80003f0:	f043 0304 	orr.w	r3, r3, #4
 80003f4:	6193      	str	r3, [r2, #24]
 80003f6:	4b05      	ldr	r3, [pc, #20]	; (800040c <MX_GPIO_Init+0x28>)
 80003f8:	699b      	ldr	r3, [r3, #24]
 80003fa:	f003 0304 	and.w	r3, r3, #4
 80003fe:	607b      	str	r3, [r7, #4]
 8000400:	687b      	ldr	r3, [r7, #4]

}
 8000402:	bf00      	nop
 8000404:	370c      	adds	r7, #12
 8000406:	46bd      	mov	sp, r7
 8000408:	bc80      	pop	{r7}
 800040a:	4770      	bx	lr
 800040c:	40021000 	.word	0x40021000

08000410 <Error_Handler>:
/**
  * @brief  This function is executed in case of error occurrence.
  * @retval None
  */
void Error_Handler(void)
{
 8000410:	b480      	push	{r7}
 8000412:	af00      	add	r7, sp, #0
  \details Disables IRQ interrupts by setting the I-bit in the CPSR.
           Can only be executed in Privileged modes.
 */
__STATIC_FORCEINLINE void __disable_irq(void)
{
  __ASM volatile ("cpsid i" : : : "memory");
 8000414:	b672      	cpsid	i
  /* USER CODE BEGIN Error_Handler_Debug */
  /* User can add his own implementation to report the HAL error return state */
  __disable_irq();
  while (1)
 8000416:	e7fe      	b.n	8000416 <Error_Handler+0x6>

08000418 <sha3_keccakf>:
 8000418:	e92d 4ff0 	stmdb	sp!, {r4, r5, r6, r7, r8, r9, sl, fp, lr}
 800041c:	b0f7      	sub	sp, #476	; 0x1dc
 800041e:	af00      	add	r7, sp, #0
 8000420:	f107 0314 	add.w	r3, r7, #20
 8000424:	6018      	str	r0, [r3, #0]
 8000426:	4ac0      	ldr	r2, [pc, #768]	; (8000728 <sha3_keccakf+0x310>)
 8000428:	f507 7380 	add.w	r3, r7, #256	; 0x100
 800042c:	4611      	mov	r1, r2
 800042e:	22c0      	movs	r2, #192	; 0xc0
 8000430:	4618      	mov	r0, r3
 8000432:	f001 f8ba 	bl	80015aa <memcpy>
 8000436:	f107 03a0 	add.w	r3, r7, #160	; 0xa0
 800043a:	4abc      	ldr	r2, [pc, #752]	; (800072c <sha3_keccakf+0x314>)
 800043c:	4618      	mov	r0, r3
 800043e:	4611      	mov	r1, r2
 8000440:	2360      	movs	r3, #96	; 0x60
 8000442:	461a      	mov	r2, r3
 8000444:	f001 f8b1 	bl	80015aa <memcpy>
 8000448:	f107 0340 	add.w	r3, r7, #64	; 0x40
 800044c:	4ab8      	ldr	r2, [pc, #736]	; (8000730 <sha3_keccakf+0x318>)
 800044e:	4618      	mov	r0, r3
 8000450:	4611      	mov	r1, r2
 8000452:	2360      	movs	r3, #96	; 0x60
 8000454:	461a      	mov	r2, r3
 8000456:	f001 f8a8 	bl	80015aa <memcpy>
 800045a:	2300      	movs	r3, #0
 800045c:	f8c7 31cc 	str.w	r3, [r7, #460]	; 0x1cc
 8000460:	e1eb      	b.n	800083a <sha3_keccakf+0x422>
 8000462:	2300      	movs	r3, #0
 8000464:	f8c7 31d4 	str.w	r3, [r7, #468]	; 0x1d4
 8000468:	e04d      	b.n	8000506 <sha3_keccakf+0xee>
 800046a:	f8d7 31d4 	ldr.w	r3, [r7, #468]	; 0x1d4
 800046e:	00db      	lsls	r3, r3, #3
 8000470:	f107 0214 	add.w	r2, r7, #20
 8000474:	6812      	ldr	r2, [r2, #0]
 8000476:	4413      	add	r3, r2
 8000478:	e9d3 ab00 	ldrd	sl, fp, [r3]
 800047c:	f8d7 31d4 	ldr.w	r3, [r7, #468]	; 0x1d4
 8000480:	3305      	adds	r3, #5
 8000482:	00db      	lsls	r3, r3, #3
 8000484:	f107 0214 	add.w	r2, r7, #20
 8000488:	6812      	ldr	r2, [r2, #0]
 800048a:	4413      	add	r3, r2
 800048c:	e9d3 2300 	ldrd	r2, r3, [r3]
 8000490:	ea8a 0002 	eor.w	r0, sl, r2
 8000494:	ea8b 0103 	eor.w	r1, fp, r3
 8000498:	f8d7 31d4 	ldr.w	r3, [r7, #468]	; 0x1d4
 800049c:	330a      	adds	r3, #10
 800049e:	00db      	lsls	r3, r3, #3
 80004a0:	f107 0214 	add.w	r2, r7, #20
 80004a4:	6812      	ldr	r2, [r2, #0]
 80004a6:	4413      	add	r3, r2
 80004a8:	e9d3 2300 	ldrd	r2, r3, [r3]
 80004ac:	ea80 0a02 	eor.w	sl, r0, r2
 80004b0:	ea81 0b03 	eor.w	fp, r1, r3
 80004b4:	f8d7 31d4 	ldr.w	r3, [r7, #468]	; 0x1d4
 80004b8:	330f      	adds	r3, #15
 80004ba:	00db      	lsls	r3, r3, #3
 80004bc:	f107 0214 	add.w	r2, r7, #20
 80004c0:	6812      	ldr	r2, [r2, #0]
 80004c2:	4413      	add	r3, r2
 80004c4:	e9d3 2300 	ldrd	r2, r3, [r3]
 80004c8:	ea8a 0002 	eor.w	r0, sl, r2
 80004cc:	ea8b 0103 	eor.w	r1, fp, r3
 80004d0:	f8d7 31d4 	ldr.w	r3, [r7, #468]	; 0x1d4
 80004d4:	3314      	adds	r3, #20
 80004d6:	00db      	lsls	r3, r3, #3
 80004d8:	f107 0214 	add.w	r2, r7, #20
 80004dc:	6812      	ldr	r2, [r2, #0]
 80004de:	4413      	add	r3, r2
 80004e0:	e9d3 ab00 	ldrd	sl, fp, [r3]
 80004e4:	ea8a 0200 	eor.w	r2, sl, r0
 80004e8:	ea8b 0301 	eor.w	r3, fp, r1
 80004ec:	f107 0018 	add.w	r0, r7, #24
 80004f0:	f8d7 11d4 	ldr.w	r1, [r7, #468]	; 0x1d4
 80004f4:	00c9      	lsls	r1, r1, #3
 80004f6:	4401      	add	r1, r0
 80004f8:	e9c1 2300 	strd	r2, r3, [r1]
 80004fc:	f8d7 31d4 	ldr.w	r3, [r7, #468]	; 0x1d4
 8000500:	3301      	adds	r3, #1
 8000502:	f8c7 31d4 	str.w	r3, [r7, #468]	; 0x1d4
 8000506:	f8d7 31d4 	ldr.w	r3, [r7, #468]	; 0x1d4
 800050a:	2b04      	cmp	r3, #4
 800050c:	ddad      	ble.n	800046a <sha3_keccakf+0x52>
 800050e:	2300      	movs	r3, #0
 8000510:	f8c7 31d4 	str.w	r3, [r7, #468]	; 0x1d4
 8000514:	e06f      	b.n	80005f6 <sha3_keccakf+0x1de>
 8000516:	f8d7 31d4 	ldr.w	r3, [r7, #468]	; 0x1d4
 800051a:	1d19      	adds	r1, r3, #4
 800051c:	4b85      	ldr	r3, [pc, #532]	; (8000734 <sha3_keccakf+0x31c>)
 800051e:	fb83 2301 	smull	r2, r3, r3, r1
 8000522:	105a      	asrs	r2, r3, #1
 8000524:	17cb      	asrs	r3, r1, #31
 8000526:	1ad2      	subs	r2, r2, r3
 8000528:	4613      	mov	r3, r2
 800052a:	009b      	lsls	r3, r3, #2
 800052c:	4413      	add	r3, r2
 800052e:	1aca      	subs	r2, r1, r3
 8000530:	f107 0118 	add.w	r1, r7, #24
 8000534:	00d3      	lsls	r3, r2, #3
 8000536:	440b      	add	r3, r1
 8000538:	e9d3 2300 	ldrd	r2, r3, [r3]
 800053c:	4692      	mov	sl, r2
 800053e:	469b      	mov	fp, r3
 8000540:	f8d7 31d4 	ldr.w	r3, [r7, #468]	; 0x1d4
 8000544:	1c59      	adds	r1, r3, #1
 8000546:	4b7b      	ldr	r3, [pc, #492]	; (8000734 <sha3_keccakf+0x31c>)
 8000548:	fb83 0301 	smull	r0, r3, r3, r1
 800054c:	105a      	asrs	r2, r3, #1
 800054e:	17cb      	asrs	r3, r1, #31
 8000550:	1ad2      	subs	r2, r2, r3
 8000552:	4613      	mov	r3, r2
 8000554:	009b      	lsls	r3, r3, #2
 8000556:	4413      	add	r3, r2
 8000558:	1aca      	subs	r2, r1, r3
 800055a:	f107 0118 	add.w	r1, r7, #24
 800055e:	00d3      	lsls	r3, r2, #3
 8000560:	440b      	add	r3, r1
 8000562:	e9d3 2300 	ldrd	r2, r3, [r3]
 8000566:	0fd0      	lsrs	r0, r2, #31
 8000568:	0059      	lsls	r1, r3, #1
 800056a:	4301      	orrs	r1, r0
 800056c:	60f9      	str	r1, [r7, #12]
 800056e:	0fd9      	lsrs	r1, r3, #31
 8000570:	0053      	lsls	r3, r2, #1
 8000572:	430b      	orrs	r3, r1
 8000574:	60bb      	str	r3, [r7, #8]
 8000576:	4652      	mov	r2, sl
 8000578:	465b      	mov	r3, fp
 800057a:	e9d7 0102 	ldrd	r0, r1, [r7, #8]
 800057e:	ea80 0002 	eor.w	r0, r0, r2
 8000582:	ea81 0103 	eor.w	r1, r1, r3
 8000586:	4602      	mov	r2, r0
 8000588:	460b      	mov	r3, r1
 800058a:	f507 71e0 	add.w	r1, r7, #448	; 0x1c0
 800058e:	e9c1 2300 	strd	r2, r3, [r1]
 8000592:	2300      	movs	r3, #0
 8000594:	f8c7 31d0 	str.w	r3, [r7, #464]	; 0x1d0
 8000598:	e024      	b.n	80005e4 <sha3_keccakf+0x1cc>
 800059a:	f8d7 21d0 	ldr.w	r2, [r7, #464]	; 0x1d0
 800059e:	f8d7 31d4 	ldr.w	r3, [r7, #468]	; 0x1d4
 80005a2:	4413      	add	r3, r2
 80005a4:	00db      	lsls	r3, r3, #3
 80005a6:	f107 0214 	add.w	r2, r7, #20
 80005aa:	6812      	ldr	r2, [r2, #0]
 80005ac:	4413      	add	r3, r2
 80005ae:	e9d3 0100 	ldrd	r0, r1, [r3]
 80005b2:	f8d7 21d0 	ldr.w	r2, [r7, #464]	; 0x1d0
 80005b6:	f8d7 31d4 	ldr.w	r3, [r7, #468]	; 0x1d4
 80005ba:	4413      	add	r3, r2
 80005bc:	00db      	lsls	r3, r3, #3
 80005be:	f107 0214 	add.w	r2, r7, #20
 80005c2:	6812      	ldr	r2, [r2, #0]
 80005c4:	18d6      	adds	r6, r2, r3
 80005c6:	f507 73e0 	add.w	r3, r7, #448	; 0x1c0
 80005ca:	e9d3 2300 	ldrd	r2, r3, [r3]
 80005ce:	ea82 0a00 	eor.w	sl, r2, r0
 80005d2:	ea83 0b01 	eor.w	fp, r3, r1
 80005d6:	e9c6 ab00 	strd	sl, fp, [r6]
 80005da:	f8d7 31d0 	ldr.w	r3, [r7, #464]	; 0x1d0
 80005de:	3305      	adds	r3, #5
 80005e0:	f8c7 31d0 	str.w	r3, [r7, #464]	; 0x1d0
 80005e4:	f8d7 31d0 	ldr.w	r3, [r7, #464]	; 0x1d0
 80005e8:	2b18      	cmp	r3, #24
 80005ea:	ddd6      	ble.n	800059a <sha3_keccakf+0x182>
 80005ec:	f8d7 31d4 	ldr.w	r3, [r7, #468]	; 0x1d4
 80005f0:	3301      	adds	r3, #1
 80005f2:	f8c7 31d4 	str.w	r3, [r7, #468]	; 0x1d4
 80005f6:	f8d7 31d4 	ldr.w	r3, [r7, #468]	; 0x1d4
 80005fa:	2b04      	cmp	r3, #4
 80005fc:	dd8b      	ble.n	8000516 <sha3_keccakf+0xfe>
 80005fe:	f107 0314 	add.w	r3, r7, #20
 8000602:	681b      	ldr	r3, [r3, #0]
 8000604:	e9d3 2302 	ldrd	r2, r3, [r3, #8]
 8000608:	f507 71e0 	add.w	r1, r7, #448	; 0x1c0
 800060c:	e9c1 2300 	strd	r2, r3, [r1]
 8000610:	2300      	movs	r3, #0
 8000612:	f8c7 31d4 	str.w	r3, [r7, #468]	; 0x1d4
 8000616:	e05a      	b.n	80006ce <sha3_keccakf+0x2b6>
 8000618:	f107 0340 	add.w	r3, r7, #64	; 0x40
 800061c:	f8d7 21d4 	ldr.w	r2, [r7, #468]	; 0x1d4
 8000620:	f853 3022 	ldr.w	r3, [r3, r2, lsl #2]
 8000624:	f8c7 31d0 	str.w	r3, [r7, #464]	; 0x1d0
 8000628:	f8d7 31d0 	ldr.w	r3, [r7, #464]	; 0x1d0
 800062c:	00db      	lsls	r3, r3, #3
 800062e:	f107 0214 	add.w	r2, r7, #20
 8000632:	6812      	ldr	r2, [r2, #0]
 8000634:	4413      	add	r3, r2
 8000636:	e9d3 2300 	ldrd	r2, r3, [r3]
 800063a:	f107 0118 	add.w	r1, r7, #24
 800063e:	e9c1 2300 	strd	r2, r3, [r1]
 8000642:	f107 03a0 	add.w	r3, r7, #160	; 0xa0
 8000646:	f8d7 21d4 	ldr.w	r2, [r7, #468]	; 0x1d4
 800064a:	f853 1022 	ldr.w	r1, [r3, r2, lsl #2]
 800064e:	f8d7 31d0 	ldr.w	r3, [r7, #464]	; 0x1d0
 8000652:	00db      	lsls	r3, r3, #3
 8000654:	f107 0214 	add.w	r2, r7, #20
 8000658:	6812      	ldr	r2, [r2, #0]
 800065a:	eb02 0c03 	add.w	ip, r2, r3
 800065e:	f507 73e0 	add.w	r3, r7, #448	; 0x1c0
 8000662:	e9d3 2300 	ldrd	r2, r3, [r3]
 8000666:	f1a1 0620 	sub.w	r6, r1, #32
 800066a:	f1c1 0020 	rsb	r0, r1, #32
 800066e:	fa03 f901 	lsl.w	r9, r3, r1
 8000672:	fa02 f606 	lsl.w	r6, r2, r6
 8000676:	ea49 0906 	orr.w	r9, r9, r6
 800067a:	fa22 f000 	lsr.w	r0, r2, r0
 800067e:	ea49 0900 	orr.w	r9, r9, r0
 8000682:	fa02 f801 	lsl.w	r8, r2, r1
 8000686:	4249      	negs	r1, r1
 8000688:	f001 013f 	and.w	r1, r1, #63	; 0x3f
 800068c:	f1c1 0620 	rsb	r6, r1, #32
 8000690:	f1a1 0020 	sub.w	r0, r1, #32
 8000694:	fa22 f401 	lsr.w	r4, r2, r1
 8000698:	fa03 f606 	lsl.w	r6, r3, r6
 800069c:	4334      	orrs	r4, r6
 800069e:	fa23 f000 	lsr.w	r0, r3, r0
 80006a2:	4304      	orrs	r4, r0
 80006a4:	fa23 f501 	lsr.w	r5, r3, r1
 80006a8:	ea44 0408 	orr.w	r4, r4, r8
 80006ac:	ea45 0509 	orr.w	r5, r5, r9
 80006b0:	e9cc 4500 	strd	r4, r5, [ip]
 80006b4:	f107 0318 	add.w	r3, r7, #24
 80006b8:	e9d3 2300 	ldrd	r2, r3, [r3]
 80006bc:	f507 71e0 	add.w	r1, r7, #448	; 0x1c0
 80006c0:	e9c1 2300 	strd	r2, r3, [r1]
 80006c4:	f8d7 31d4 	ldr.w	r3, [r7, #468]	; 0x1d4
 80006c8:	3301      	adds	r3, #1
 80006ca:	f8c7 31d4 	str.w	r3, [r7, #468]	; 0x1d4
 80006ce:	f8d7 31d4 	ldr.w	r3, [r7, #468]	; 0x1d4
 80006d2:	2b17      	cmp	r3, #23
 80006d4:	dda0      	ble.n	8000618 <sha3_keccakf+0x200>
 80006d6:	2300      	movs	r3, #0
 80006d8:	f8c7 31d0 	str.w	r3, [r7, #464]	; 0x1d0
 80006dc:	e08c      	b.n	80007f8 <sha3_keccakf+0x3e0>
 80006de:	2300      	movs	r3, #0
 80006e0:	f8c7 31d4 	str.w	r3, [r7, #468]	; 0x1d4
 80006e4:	e018      	b.n	8000718 <sha3_keccakf+0x300>
 80006e6:	f8d7 21d0 	ldr.w	r2, [r7, #464]	; 0x1d0
 80006ea:	f8d7 31d4 	ldr.w	r3, [r7, #468]	; 0x1d4
 80006ee:	4413      	add	r3, r2
 80006f0:	00db      	lsls	r3, r3, #3
 80006f2:	f107 0214 	add.w	r2, r7, #20
 80006f6:	6812      	ldr	r2, [r2, #0]
 80006f8:	4413      	add	r3, r2
 80006fa:	e9d3 2300 	ldrd	r2, r3, [r3]
 80006fe:	f107 0018 	add.w	r0, r7, #24
 8000702:	f8d7 11d4 	ldr.w	r1, [r7, #468]	; 0x1d4
 8000706:	00c9      	lsls	r1, r1, #3
 8000708:	4401      	add	r1, r0
 800070a:	e9c1 2300 	strd	r2, r3, [r1]
 800070e:	f8d7 31d4 	ldr.w	r3, [r7, #468]	; 0x1d4
 8000712:	3301      	adds	r3, #1
 8000714:	f8c7 31d4 	str.w	r3, [r7, #468]	; 0x1d4
 8000718:	f8d7 31d4 	ldr.w	r3, [r7, #468]	; 0x1d4
 800071c:	2b04      	cmp	r3, #4
 800071e:	dde2      	ble.n	80006e6 <sha3_keccakf+0x2ce>
 8000720:	2300      	movs	r3, #0
 8000722:	f8c7 31d4 	str.w	r3, [r7, #468]	; 0x1d4
 8000726:	e05e      	b.n	80007e6 <sha3_keccakf+0x3ce>
 8000728:	08001a90 	.word	0x08001a90
 800072c:	08001b50 	.word	0x08001b50
 8000730:	08001bb0 	.word	0x08001bb0
 8000734:	66666667 	.word	0x66666667
 8000738:	f8d7 21d0 	ldr.w	r2, [r7, #464]	; 0x1d0
 800073c:	f8d7 31d4 	ldr.w	r3, [r7, #468]	; 0x1d4
 8000740:	4413      	add	r3, r2
 8000742:	00db      	lsls	r3, r3, #3
 8000744:	f107 0214 	add.w	r2, r7, #20
 8000748:	6812      	ldr	r2, [r2, #0]
 800074a:	4413      	add	r3, r2
 800074c:	e9d3 2300 	ldrd	r2, r3, [r3]
 8000750:	e9c7 2300 	strd	r2, r3, [r7]
 8000754:	f8d7 31d4 	ldr.w	r3, [r7, #468]	; 0x1d4
 8000758:	1c59      	adds	r1, r3, #1
 800075a:	4b3d      	ldr	r3, [pc, #244]	; (8000850 <sha3_keccakf+0x438>)
 800075c:	fb83 0301 	smull	r0, r3, r3, r1
 8000760:	105a      	asrs	r2, r3, #1
 8000762:	17cb      	asrs	r3, r1, #31
 8000764:	1ad2      	subs	r2, r2, r3
 8000766:	4613      	mov	r3, r2
 8000768:	009b      	lsls	r3, r3, #2
 800076a:	4413      	add	r3, r2
 800076c:	1aca      	subs	r2, r1, r3
 800076e:	f107 0118 	add.w	r1, r7, #24
 8000772:	00d3      	lsls	r3, r2, #3
 8000774:	440b      	add	r3, r1
 8000776:	e9d3 2300 	ldrd	r2, r3, [r3]
 800077a:	ea6f 0b02 	mvn.w	fp, r2
 800077e:	ea6f 0c03 	mvn.w	ip, r3
 8000782:	f8d7 31d4 	ldr.w	r3, [r7, #468]	; 0x1d4
 8000786:	1c99      	adds	r1, r3, #2
 8000788:	4b31      	ldr	r3, [pc, #196]	; (8000850 <sha3_keccakf+0x438>)
 800078a:	fb83 0301 	smull	r0, r3, r3, r1
 800078e:	105a      	asrs	r2, r3, #1
 8000790:	17cb      	asrs	r3, r1, #31
 8000792:	1ad2      	subs	r2, r2, r3
 8000794:	4613      	mov	r3, r2
 8000796:	009b      	lsls	r3, r3, #2
 8000798:	4413      	add	r3, r2
 800079a:	1aca      	subs	r2, r1, r3
 800079c:	f107 0118 	add.w	r1, r7, #24
 80007a0:	00d3      	lsls	r3, r2, #3
 80007a2:	440b      	add	r3, r1
 80007a4:	e9d3 2300 	ldrd	r2, r3, [r3]
 80007a8:	ea0b 0b02 	and.w	fp, fp, r2
 80007ac:	ea0c 0c03 	and.w	ip, ip, r3
 80007b0:	465a      	mov	r2, fp
 80007b2:	4663      	mov	r3, ip
 80007b4:	f8d7 01d0 	ldr.w	r0, [r7, #464]	; 0x1d0
 80007b8:	f8d7 11d4 	ldr.w	r1, [r7, #468]	; 0x1d4
 80007bc:	4401      	add	r1, r0
 80007be:	00c9      	lsls	r1, r1, #3
 80007c0:	f107 0014 	add.w	r0, r7, #20
 80007c4:	6800      	ldr	r0, [r0, #0]
 80007c6:	4401      	add	r1, r0
 80007c8:	e9d7 ab00 	ldrd	sl, fp, [r7]
 80007cc:	ea8a 0a02 	eor.w	sl, sl, r2
 80007d0:	ea8b 0b03 	eor.w	fp, fp, r3
 80007d4:	4652      	mov	r2, sl
 80007d6:	465b      	mov	r3, fp
 80007d8:	e9c1 2300 	strd	r2, r3, [r1]
 80007dc:	f8d7 31d4 	ldr.w	r3, [r7, #468]	; 0x1d4
 80007e0:	3301      	adds	r3, #1
 80007e2:	f8c7 31d4 	str.w	r3, [r7, #468]	; 0x1d4
 80007e6:	f8d7 31d4 	ldr.w	r3, [r7, #468]	; 0x1d4
 80007ea:	2b04      	cmp	r3, #4
 80007ec:	dda4      	ble.n	8000738 <sha3_keccakf+0x320>
 80007ee:	f8d7 31d0 	ldr.w	r3, [r7, #464]	; 0x1d0
 80007f2:	3305      	adds	r3, #5
 80007f4:	f8c7 31d0 	str.w	r3, [r7, #464]	; 0x1d0
 80007f8:	f8d7 31d0 	ldr.w	r3, [r7, #464]	; 0x1d0
 80007fc:	2b18      	cmp	r3, #24
 80007fe:	f77f af6e 	ble.w	80006de <sha3_keccakf+0x2c6>
 8000802:	f107 0314 	add.w	r3, r7, #20
 8000806:	681b      	ldr	r3, [r3, #0]
 8000808:	e9d3 0100 	ldrd	r0, r1, [r3]
 800080c:	f8d7 31cc 	ldr.w	r3, [r7, #460]	; 0x1cc
 8000810:	00db      	lsls	r3, r3, #3
 8000812:	f507 72ec 	add.w	r2, r7, #472	; 0x1d8
 8000816:	4413      	add	r3, r2
 8000818:	3bd8      	subs	r3, #216	; 0xd8
 800081a:	e9d3 ab00 	ldrd	sl, fp, [r3]
 800081e:	ea8a 0200 	eor.w	r2, sl, r0
 8000822:	ea8b 0301 	eor.w	r3, fp, r1
 8000826:	f107 0114 	add.w	r1, r7, #20
 800082a:	6809      	ldr	r1, [r1, #0]
 800082c:	e9c1 2300 	strd	r2, r3, [r1]
 8000830:	f8d7 31cc 	ldr.w	r3, [r7, #460]	; 0x1cc
 8000834:	3301      	adds	r3, #1
 8000836:	f8c7 31cc 	str.w	r3, [r7, #460]	; 0x1cc
 800083a:	f8d7 31cc 	ldr.w	r3, [r7, #460]	; 0x1cc
 800083e:	2b17      	cmp	r3, #23
 8000840:	f77f ae0f 	ble.w	8000462 <sha3_keccakf+0x4a>
 8000844:	bf00      	nop
 8000846:	f507 77ee 	add.w	r7, r7, #476	; 0x1dc
 800084a:	46bd      	mov	sp, r7
 800084c:	e8bd 8ff0 	ldmia.w	sp!, {r4, r5, r6, r7, r8, r9, sl, fp, pc}
 8000850:	66666667 	.word	0x66666667

08000854 <sha3_init>:
 8000854:	b490      	push	{r4, r7}
 8000856:	b084      	sub	sp, #16
 8000858:	af00      	add	r7, sp, #0
 800085a:	6078      	str	r0, [r7, #4]
 800085c:	6039      	str	r1, [r7, #0]
 800085e:	2300      	movs	r3, #0
 8000860:	60fb      	str	r3, [r7, #12]
 8000862:	e00c      	b.n	800087e <sha3_init+0x2a>
 8000864:	687a      	ldr	r2, [r7, #4]
 8000866:	68fb      	ldr	r3, [r7, #12]
 8000868:	00db      	lsls	r3, r3, #3
 800086a:	441a      	add	r2, r3
 800086c:	f04f 0300 	mov.w	r3, #0
 8000870:	f04f 0400 	mov.w	r4, #0
 8000874:	e9c2 3400 	strd	r3, r4, [r2]
 8000878:	68fb      	ldr	r3, [r7, #12]
 800087a:	3301      	adds	r3, #1
 800087c:	60fb      	str	r3, [r7, #12]
 800087e:	68fb      	ldr	r3, [r7, #12]
 8000880:	2b18      	cmp	r3, #24
 8000882:	ddef      	ble.n	8000864 <sha3_init+0x10>
 8000884:	687b      	ldr	r3, [r7, #4]
 8000886:	683a      	ldr	r2, [r7, #0]
 8000888:	f8c3 20d0 	str.w	r2, [r3, #208]	; 0xd0
 800088c:	683b      	ldr	r3, [r7, #0]
 800088e:	f1c3 0364 	rsb	r3, r3, #100	; 0x64
 8000892:	005a      	lsls	r2, r3, #1
 8000894:	687b      	ldr	r3, [r7, #4]
 8000896:	f8c3 20cc 	str.w	r2, [r3, #204]	; 0xcc
 800089a:	687b      	ldr	r3, [r7, #4]
 800089c:	2200      	movs	r2, #0
 800089e:	f8c3 20c8 	str.w	r2, [r3, #200]	; 0xc8
 80008a2:	2301      	movs	r3, #1
 80008a4:	4618      	mov	r0, r3
 80008a6:	3710      	adds	r7, #16
 80008a8:	46bd      	mov	sp, r7
 80008aa:	bc90      	pop	{r4, r7}
 80008ac:	4770      	bx	lr

080008ae <sha3_update>:
 80008ae:	b580      	push	{r7, lr}
 80008b0:	b086      	sub	sp, #24
 80008b2:	af00      	add	r7, sp, #0
 80008b4:	60f8      	str	r0, [r7, #12]
 80008b6:	60b9      	str	r1, [r7, #8]
 80008b8:	607a      	str	r2, [r7, #4]
 80008ba:	68fb      	ldr	r3, [r7, #12]
 80008bc:	f8d3 30c8 	ldr.w	r3, [r3, #200]	; 0xc8
 80008c0:	613b      	str	r3, [r7, #16]
 80008c2:	2300      	movs	r3, #0
 80008c4:	617b      	str	r3, [r7, #20]
 80008c6:	e01b      	b.n	8000900 <sha3_update+0x52>
 80008c8:	693b      	ldr	r3, [r7, #16]
 80008ca:	1c5a      	adds	r2, r3, #1
 80008cc:	613a      	str	r2, [r7, #16]
 80008ce:	68fa      	ldr	r2, [r7, #12]
 80008d0:	5cd1      	ldrb	r1, [r2, r3]
 80008d2:	68b8      	ldr	r0, [r7, #8]
 80008d4:	697a      	ldr	r2, [r7, #20]
 80008d6:	4402      	add	r2, r0
 80008d8:	7812      	ldrb	r2, [r2, #0]
 80008da:	404a      	eors	r2, r1
 80008dc:	b2d1      	uxtb	r1, r2
 80008de:	68fa      	ldr	r2, [r7, #12]
 80008e0:	54d1      	strb	r1, [r2, r3]
 80008e2:	68fb      	ldr	r3, [r7, #12]
 80008e4:	f8d3 30cc 	ldr.w	r3, [r3, #204]	; 0xcc
 80008e8:	693a      	ldr	r2, [r7, #16]
 80008ea:	429a      	cmp	r2, r3
 80008ec:	db05      	blt.n	80008fa <sha3_update+0x4c>
 80008ee:	68fb      	ldr	r3, [r7, #12]
 80008f0:	4618      	mov	r0, r3
 80008f2:	f7ff fd91 	bl	8000418 <sha3_keccakf>
 80008f6:	2300      	movs	r3, #0
 80008f8:	613b      	str	r3, [r7, #16]
 80008fa:	697b      	ldr	r3, [r7, #20]
 80008fc:	3301      	adds	r3, #1
 80008fe:	617b      	str	r3, [r7, #20]
 8000900:	697a      	ldr	r2, [r7, #20]
 8000902:	687b      	ldr	r3, [r7, #4]
 8000904:	429a      	cmp	r2, r3
 8000906:	d3df      	bcc.n	80008c8 <sha3_update+0x1a>
 8000908:	68fb      	ldr	r3, [r7, #12]
 800090a:	693a      	ldr	r2, [r7, #16]
 800090c:	f8c3 20c8 	str.w	r2, [r3, #200]	; 0xc8
 8000910:	2301      	movs	r3, #1
 8000912:	4618      	mov	r0, r3
 8000914:	3718      	adds	r7, #24
 8000916:	46bd      	mov	sp, r7
 8000918:	bd80      	pop	{r7, pc}

0800091a <sha3_final>:
 800091a:	b580      	push	{r7, lr}
 800091c:	b084      	sub	sp, #16
 800091e:	af00      	add	r7, sp, #0
 8000920:	6078      	str	r0, [r7, #4]
 8000922:	6039      	str	r1, [r7, #0]
 8000924:	683b      	ldr	r3, [r7, #0]
 8000926:	f8d3 30c8 	ldr.w	r3, [r3, #200]	; 0xc8
 800092a:	683a      	ldr	r2, [r7, #0]
 800092c:	5cd2      	ldrb	r2, [r2, r3]
 800092e:	683b      	ldr	r3, [r7, #0]
 8000930:	f8d3 30c8 	ldr.w	r3, [r3, #200]	; 0xc8
 8000934:	f082 0206 	eor.w	r2, r2, #6
 8000938:	b2d1      	uxtb	r1, r2
 800093a:	683a      	ldr	r2, [r7, #0]
 800093c:	54d1      	strb	r1, [r2, r3]
 800093e:	683b      	ldr	r3, [r7, #0]
 8000940:	f8d3 30cc 	ldr.w	r3, [r3, #204]	; 0xcc
 8000944:	3b01      	subs	r3, #1
 8000946:	683a      	ldr	r2, [r7, #0]
 8000948:	5cd3      	ldrb	r3, [r2, r3]
 800094a:	683a      	ldr	r2, [r7, #0]
 800094c:	f8d2 20cc 	ldr.w	r2, [r2, #204]	; 0xcc
 8000950:	3a01      	subs	r2, #1
 8000952:	f083 037f 	eor.w	r3, r3, #127	; 0x7f
 8000956:	43db      	mvns	r3, r3
 8000958:	b2d9      	uxtb	r1, r3
 800095a:	683b      	ldr	r3, [r7, #0]
 800095c:	5499      	strb	r1, [r3, r2]
 800095e:	683b      	ldr	r3, [r7, #0]
 8000960:	4618      	mov	r0, r3
 8000962:	f7ff fd59 	bl	8000418 <sha3_keccakf>
 8000966:	2300      	movs	r3, #0
 8000968:	60fb      	str	r3, [r7, #12]
 800096a:	e00a      	b.n	8000982 <sha3_final+0x68>
 800096c:	68fb      	ldr	r3, [r7, #12]
 800096e:	687a      	ldr	r2, [r7, #4]
 8000970:	4413      	add	r3, r2
 8000972:	6839      	ldr	r1, [r7, #0]
 8000974:	68fa      	ldr	r2, [r7, #12]
 8000976:	440a      	add	r2, r1
 8000978:	7812      	ldrb	r2, [r2, #0]
 800097a:	701a      	strb	r2, [r3, #0]
 800097c:	68fb      	ldr	r3, [r7, #12]
 800097e:	3301      	adds	r3, #1
 8000980:	60fb      	str	r3, [r7, #12]
 8000982:	683b      	ldr	r3, [r7, #0]
 8000984:	f8d3 30d0 	ldr.w	r3, [r3, #208]	; 0xd0
 8000988:	68fa      	ldr	r2, [r7, #12]
 800098a:	429a      	cmp	r2, r3
 800098c:	dbee      	blt.n	800096c <sha3_final+0x52>
 800098e:	2301      	movs	r3, #1
 8000990:	4618      	mov	r0, r3
 8000992:	3710      	adds	r7, #16
 8000994:	46bd      	mov	sp, r7
 8000996:	bd80      	pop	{r7, pc}

08000998 <sha3>:
 8000998:	b580      	push	{r7, lr}
 800099a:	b0ba      	sub	sp, #232	; 0xe8
 800099c:	af00      	add	r7, sp, #0
 800099e:	60f8      	str	r0, [r7, #12]
 80009a0:	60b9      	str	r1, [r7, #8]
 80009a2:	607a      	str	r2, [r7, #4]
 80009a4:	603b      	str	r3, [r7, #0]
 80009a6:	f107 0310 	add.w	r3, r7, #16
 80009aa:	6839      	ldr	r1, [r7, #0]
 80009ac:	4618      	mov	r0, r3
 80009ae:	f7ff ff51 	bl	8000854 <sha3_init>
 80009b2:	f107 0310 	add.w	r3, r7, #16
 80009b6:	68ba      	ldr	r2, [r7, #8]
 80009b8:	68f9      	ldr	r1, [r7, #12]
 80009ba:	4618      	mov	r0, r3
 80009bc:	f7ff ff77 	bl	80008ae <sha3_update>
 80009c0:	f107 0310 	add.w	r3, r7, #16
 80009c4:	4619      	mov	r1, r3
 80009c6:	6878      	ldr	r0, [r7, #4]
 80009c8:	f7ff ffa7 	bl	800091a <sha3_final>
 80009cc:	687b      	ldr	r3, [r7, #4]
 80009ce:	4618      	mov	r0, r3
 80009d0:	37e8      	adds	r7, #232	; 0xe8
 80009d2:	46bd      	mov	sp, r7
 80009d4:	bd80      	pop	{r7, pc}
	...

080009d8 <HAL_MspInit>:
 80009d8:	b480      	push	{r7}
 80009da:	b085      	sub	sp, #20
 80009dc:	af00      	add	r7, sp, #0
 80009de:	4b15      	ldr	r3, [pc, #84]	; (8000a34 <HAL_MspInit+0x5c>)
 80009e0:	699b      	ldr	r3, [r3, #24]
 80009e2:	4a14      	ldr	r2, [pc, #80]	; (8000a34 <HAL_MspInit+0x5c>)
 80009e4:	f043 0301 	orr.w	r3, r3, #1
 80009e8:	6193      	str	r3, [r2, #24]
 80009ea:	4b12      	ldr	r3, [pc, #72]	; (8000a34 <HAL_MspInit+0x5c>)
 80009ec:	699b      	ldr	r3, [r3, #24]
 80009ee:	f003 0301 	and.w	r3, r3, #1
 80009f2:	60bb      	str	r3, [r7, #8]
 80009f4:	68bb      	ldr	r3, [r7, #8]
 80009f6:	4b0f      	ldr	r3, [pc, #60]	; (8000a34 <HAL_MspInit+0x5c>)
 80009f8:	69db      	ldr	r3, [r3, #28]
 80009fa:	4a0e      	ldr	r2, [pc, #56]	; (8000a34 <HAL_MspInit+0x5c>)
 80009fc:	f043 5380 	orr.w	r3, r3, #268435456	; 0x10000000
 8000a00:	61d3      	str	r3, [r2, #28]
 8000a02:	4b0c      	ldr	r3, [pc, #48]	; (8000a34 <HAL_MspInit+0x5c>)
 8000a04:	69db      	ldr	r3, [r3, #28]
 8000a06:	f003 5380 	and.w	r3, r3, #268435456	; 0x10000000
 8000a0a:	607b      	str	r3, [r7, #4]
 8000a0c:	687b      	ldr	r3, [r7, #4]
 8000a0e:	4b0a      	ldr	r3, [pc, #40]	; (8000a38 <HAL_MspInit+0x60>)
 8000a10:	685b      	ldr	r3, [r3, #4]
 8000a12:	60fb      	str	r3, [r7, #12]
 8000a14:	68fb      	ldr	r3, [r7, #12]
 8000a16:	f023 63e0 	bic.w	r3, r3, #117440512	; 0x7000000
 8000a1a:	60fb      	str	r3, [r7, #12]
 8000a1c:	68fb      	ldr	r3, [r7, #12]
 8000a1e:	f043 7300 	orr.w	r3, r3, #33554432	; 0x2000000
 8000a22:	60fb      	str	r3, [r7, #12]
 8000a24:	4a04      	ldr	r2, [pc, #16]	; (8000a38 <HAL_MspInit+0x60>)
 8000a26:	68fb      	ldr	r3, [r7, #12]
 8000a28:	6053      	str	r3, [r2, #4]
 8000a2a:	bf00      	nop
 8000a2c:	3714      	adds	r7, #20
 8000a2e:	46bd      	mov	sp, r7
 8000a30:	bc80      	pop	{r7}
 8000a32:	4770      	bx	lr
 8000a34:	40021000 	.word	0x40021000
 8000a38:	40010000 	.word	0x40010000

08000a3c <NMI_Handler>:
 8000a3c:	b480      	push	{r7}
 8000a3e:	af00      	add	r7, sp, #0
 8000a40:	e7fe      	b.n	8000a40 <NMI_Handler+0x4>

08000a42 <HardFault_Handler>:
 8000a42:	b480      	push	{r7}
 8000a44:	af00      	add	r7, sp, #0
 8000a46:	e7fe      	b.n	8000a46 <HardFault_Handler+0x4>

08000a48 <MemManage_Handler>:
 8000a48:	b480      	push	{r7}
 8000a4a:	af00      	add	r7, sp, #0
 8000a4c:	e7fe      	b.n	8000a4c <MemManage_Handler+0x4>

08000a4e <BusFault_Handler>:
 8000a4e:	b480      	push	{r7}
 8000a50:	af00      	add	r7, sp, #0
 8000a52:	e7fe      	b.n	8000a52 <BusFault_Handler+0x4>

08000a54 <UsageFault_Handler>:
 8000a54:	b480      	push	{r7}
 8000a56:	af00      	add	r7, sp, #0
 8000a58:	e7fe      	b.n	8000a58 <UsageFault_Handler+0x4>

08000a5a <SVC_Handler>:
 8000a5a:	b480      	push	{r7}
 8000a5c:	af00      	add	r7, sp, #0
 8000a5e:	bf00      	nop
 8000a60:	46bd      	mov	sp, r7
 8000a62:	bc80      	pop	{r7}
 8000a64:	4770      	bx	lr

08000a66 <DebugMon_Handler>:
 8000a66:	b480      	push	{r7}
 8000a68:	af00      	add	r7, sp, #0
 8000a6a:	bf00      	nop
 8000a6c:	46bd      	mov	sp, r7
 8000a6e:	bc80      	pop	{r7}
 8000a70:	4770      	bx	lr

08000a72 <PendSV_Handler>:
 8000a72:	b480      	push	{r7}
 8000a74:	af00      	add	r7, sp, #0
 8000a76:	bf00      	nop
 8000a78:	46bd      	mov	sp, r7
 8000a7a:	bc80      	pop	{r7}
 8000a7c:	4770      	bx	lr

08000a7e <SysTick_Handler>:
 8000a7e:	b580      	push	{r7, lr}
 8000a80:	af00      	add	r7, sp, #0
 8000a82:	f000 f875 	bl	8000b70 <HAL_IncTick>
 8000a86:	bf00      	nop
 8000a88:	bd80      	pop	{r7, pc}

08000a8a <SystemInit>:
 8000a8a:	b480      	push	{r7}
 8000a8c:	af00      	add	r7, sp, #0
 8000a8e:	bf00      	nop
 8000a90:	46bd      	mov	sp, r7
 8000a92:	bc80      	pop	{r7}
 8000a94:	4770      	bx	lr
	...

08000a98 <Reset_Handler>:
 8000a98:	480c      	ldr	r0, [pc, #48]	; (8000acc <LoopFillZerobss+0x12>)
 8000a9a:	490d      	ldr	r1, [pc, #52]	; (8000ad0 <LoopFillZerobss+0x16>)
 8000a9c:	4a0d      	ldr	r2, [pc, #52]	; (8000ad4 <LoopFillZerobss+0x1a>)
 8000a9e:	2300      	movs	r3, #0
 8000aa0:	e002      	b.n	8000aa8 <LoopCopyDataInit>

08000aa2 <CopyDataInit>:
 8000aa2:	58d4      	ldr	r4, [r2, r3]
 8000aa4:	50c4      	str	r4, [r0, r3]
 8000aa6:	3304      	adds	r3, #4

08000aa8 <LoopCopyDataInit>:
 8000aa8:	18c4      	adds	r4, r0, r3
 8000aaa:	428c      	cmp	r4, r1
 8000aac:	d3f9      	bcc.n	8000aa2 <CopyDataInit>
 8000aae:	4a0a      	ldr	r2, [pc, #40]	; (8000ad8 <LoopFillZerobss+0x1e>)
 8000ab0:	4c0a      	ldr	r4, [pc, #40]	; (8000adc <LoopFillZerobss+0x22>)
 8000ab2:	2300      	movs	r3, #0
 8000ab4:	e001      	b.n	8000aba <LoopFillZerobss>

08000ab6 <FillZerobss>:
 8000ab6:	6013      	str	r3, [r2, #0]
 8000ab8:	3204      	adds	r2, #4

08000aba <LoopFillZerobss>:
 8000aba:	42a2      	cmp	r2, r4
 8000abc:	d3fb      	bcc.n	8000ab6 <FillZerobss>
 8000abe:	f7ff ffe4 	bl	8000a8a <SystemInit>
 8000ac2:	f000 fd3f 	bl	8001544 <__libc_init_array>
 8000ac6:	f7ff fc43 	bl	8000350 <main>
 8000aca:	4770      	bx	lr
 8000acc:	20000000 	.word	0x20000000
 8000ad0:	2000000c 	.word	0x2000000c
 8000ad4:	08001c3c 	.word	0x08001c3c
 8000ad8:	2000000c 	.word	0x2000000c
 8000adc:	2000002c 	.word	0x2000002c

08000ae0 <ADC1_2_IRQHandler>:
 8000ae0:	e7fe      	b.n	8000ae0 <ADC1_2_IRQHandler>
	...

08000ae4 <HAL_Init>:
 8000ae4:	b580      	push	{r7, lr}
 8000ae6:	af00      	add	r7, sp, #0
 8000ae8:	4b08      	ldr	r3, [pc, #32]	; (8000b0c <HAL_Init+0x28>)
 8000aea:	681b      	ldr	r3, [r3, #0]
 8000aec:	4a07      	ldr	r2, [pc, #28]	; (8000b0c <HAL_Init+0x28>)
 8000aee:	f043 0310 	orr.w	r3, r3, #16
 8000af2:	6013      	str	r3, [r2, #0]
 8000af4:	2003      	movs	r0, #3
 8000af6:	f000 f907 	bl	8000d08 <HAL_NVIC_SetPriorityGrouping>
 8000afa:	2000      	movs	r0, #0
 8000afc:	f000 f808 	bl	8000b10 <HAL_InitTick>
 8000b00:	f7ff ff6a 	bl	80009d8 <HAL_MspInit>
 8000b04:	2300      	movs	r3, #0
 8000b06:	4618      	mov	r0, r3
 8000b08:	bd80      	pop	{r7, pc}
 8000b0a:	bf00      	nop
 8000b0c:	40022000 	.word	0x40022000

08000b10 <HAL_InitTick>:
 8000b10:	b580      	push	{r7, lr}
 8000b12:	b082      	sub	sp, #8
 8000b14:	af00      	add	r7, sp, #0
 8000b16:	6078      	str	r0, [r7, #4]
 8000b18:	4b12      	ldr	r3, [pc, #72]	; (8000b64 <HAL_InitTick+0x54>)
 8000b1a:	681a      	ldr	r2, [r3, #0]
 8000b1c:	4b12      	ldr	r3, [pc, #72]	; (8000b68 <HAL_InitTick+0x58>)
 8000b1e:	781b      	ldrb	r3, [r3, #0]
 8000b20:	4619      	mov	r1, r3
 8000b22:	f44f 737a 	mov.w	r3, #1000	; 0x3e8
 8000b26:	fbb3 f3f1 	udiv	r3, r3, r1
 8000b2a:	fbb2 f3f3 	udiv	r3, r2, r3
 8000b2e:	4618      	mov	r0, r3
 8000b30:	f000 f911 	bl	8000d56 <HAL_SYSTICK_Config>
 8000b34:	4603      	mov	r3, r0
 8000b36:	2b00      	cmp	r3, #0
 8000b38:	d001      	beq.n	8000b3e <HAL_InitTick+0x2e>
 8000b3a:	2301      	movs	r3, #1
 8000b3c:	e00e      	b.n	8000b5c <HAL_InitTick+0x4c>
 8000b3e:	687b      	ldr	r3, [r7, #4]
 8000b40:	2b0f      	cmp	r3, #15
 8000b42:	d80a      	bhi.n	8000b5a <HAL_InitTick+0x4a>
 8000b44:	2200      	movs	r2, #0
 8000b46:	6879      	ldr	r1, [r7, #4]
 8000b48:	f04f 30ff 	mov.w	r0, #4294967295
 8000b4c:	f000 f8e7 	bl	8000d1e <HAL_NVIC_SetPriority>
 8000b50:	4a06      	ldr	r2, [pc, #24]	; (8000b6c <HAL_InitTick+0x5c>)
 8000b52:	687b      	ldr	r3, [r7, #4]
 8000b54:	6013      	str	r3, [r2, #0]
 8000b56:	2300      	movs	r3, #0
 8000b58:	e000      	b.n	8000b5c <HAL_InitTick+0x4c>
 8000b5a:	2301      	movs	r3, #1
 8000b5c:	4618      	mov	r0, r3
 8000b5e:	3708      	adds	r7, #8
 8000b60:	46bd      	mov	sp, r7
 8000b62:	bd80      	pop	{r7, pc}
 8000b64:	20000000 	.word	0x20000000
 8000b68:	20000008 	.word	0x20000008
 8000b6c:	20000004 	.word	0x20000004

08000b70 <HAL_IncTick>:
 8000b70:	b480      	push	{r7}
 8000b72:	af00      	add	r7, sp, #0
 8000b74:	4b05      	ldr	r3, [pc, #20]	; (8000b8c <HAL_IncTick+0x1c>)
 8000b76:	781b      	ldrb	r3, [r3, #0]
 8000b78:	461a      	mov	r2, r3
 8000b7a:	4b05      	ldr	r3, [pc, #20]	; (8000b90 <HAL_IncTick+0x20>)
 8000b7c:	681b      	ldr	r3, [r3, #0]
 8000b7e:	4413      	add	r3, r2
 8000b80:	4a03      	ldr	r2, [pc, #12]	; (8000b90 <HAL_IncTick+0x20>)
 8000b82:	6013      	str	r3, [r2, #0]
 8000b84:	bf00      	nop
 8000b86:	46bd      	mov	sp, r7
 8000b88:	bc80      	pop	{r7}
 8000b8a:	4770      	bx	lr
 8000b8c:	20000008 	.word	0x20000008
 8000b90:	20000028 	.word	0x20000028

08000b94 <HAL_GetTick>:
 8000b94:	b480      	push	{r7}
 8000b96:	af00      	add	r7, sp, #0
 8000b98:	4b02      	ldr	r3, [pc, #8]	; (8000ba4 <HAL_GetTick+0x10>)
 8000b9a:	681b      	ldr	r3, [r3, #0]
 8000b9c:	4618      	mov	r0, r3
 8000b9e:	46bd      	mov	sp, r7
 8000ba0:	bc80      	pop	{r7}
 8000ba2:	4770      	bx	lr
 8000ba4:	20000028 	.word	0x20000028

08000ba8 <__NVIC_SetPriorityGrouping>:
 8000ba8:	b480      	push	{r7}
 8000baa:	b085      	sub	sp, #20
 8000bac:	af00      	add	r7, sp, #0
 8000bae:	6078      	str	r0, [r7, #4]
 8000bb0:	687b      	ldr	r3, [r7, #4]
 8000bb2:	f003 0307 	and.w	r3, r3, #7
 8000bb6:	60fb      	str	r3, [r7, #12]
 8000bb8:	4b0c      	ldr	r3, [pc, #48]	; (8000bec <__NVIC_SetPriorityGrouping+0x44>)
 8000bba:	68db      	ldr	r3, [r3, #12]
 8000bbc:	60bb      	str	r3, [r7, #8]
 8000bbe:	68ba      	ldr	r2, [r7, #8]
 8000bc0:	f64f 03ff 	movw	r3, #63743	; 0xf8ff
 8000bc4:	4013      	ands	r3, r2
 8000bc6:	60bb      	str	r3, [r7, #8]
 8000bc8:	68fb      	ldr	r3, [r7, #12]
 8000bca:	021a      	lsls	r2, r3, #8
 8000bcc:	68bb      	ldr	r3, [r7, #8]
 8000bce:	4313      	orrs	r3, r2
 8000bd0:	f043 63bf 	orr.w	r3, r3, #100139008	; 0x5f80000
 8000bd4:	f443 3300 	orr.w	r3, r3, #131072	; 0x20000
 8000bd8:	60bb      	str	r3, [r7, #8]
 8000bda:	4a04      	ldr	r2, [pc, #16]	; (8000bec <__NVIC_SetPriorityGrouping+0x44>)
 8000bdc:	68bb      	ldr	r3, [r7, #8]
 8000bde:	60d3      	str	r3, [r2, #12]
 8000be0:	bf00      	nop
 8000be2:	3714      	adds	r7, #20
 8000be4:	46bd      	mov	sp, r7
 8000be6:	bc80      	pop	{r7}
 8000be8:	4770      	bx	lr
 8000bea:	bf00      	nop
 8000bec:	e000ed00 	.word	0xe000ed00

08000bf0 <__NVIC_GetPriorityGrouping>:
 8000bf0:	b480      	push	{r7}
 8000bf2:	af00      	add	r7, sp, #0
 8000bf4:	4b04      	ldr	r3, [pc, #16]	; (8000c08 <__NVIC_GetPriorityGrouping+0x18>)
 8000bf6:	68db      	ldr	r3, [r3, #12]
 8000bf8:	0a1b      	lsrs	r3, r3, #8
 8000bfa:	f003 0307 	and.w	r3, r3, #7
 8000bfe:	4618      	mov	r0, r3
 8000c00:	46bd      	mov	sp, r7
 8000c02:	bc80      	pop	{r7}
 8000c04:	4770      	bx	lr
 8000c06:	bf00      	nop
 8000c08:	e000ed00 	.word	0xe000ed00

08000c0c <__NVIC_SetPriority>:
 8000c0c:	b480      	push	{r7}
 8000c0e:	b083      	sub	sp, #12
 8000c10:	af00      	add	r7, sp, #0
 8000c12:	4603      	mov	r3, r0
 8000c14:	6039      	str	r1, [r7, #0]
 8000c16:	71fb      	strb	r3, [r7, #7]
 8000c18:	f997 3007 	ldrsb.w	r3, [r7, #7]
 8000c1c:	2b00      	cmp	r3, #0
 8000c1e:	db0a      	blt.n	8000c36 <__NVIC_SetPriority+0x2a>
 8000c20:	683b      	ldr	r3, [r7, #0]
 8000c22:	b2da      	uxtb	r2, r3
 8000c24:	490c      	ldr	r1, [pc, #48]	; (8000c58 <__NVIC_SetPriority+0x4c>)
 8000c26:	f997 3007 	ldrsb.w	r3, [r7, #7]
 8000c2a:	0112      	lsls	r2, r2, #4
 8000c2c:	b2d2      	uxtb	r2, r2
 8000c2e:	440b      	add	r3, r1
 8000c30:	f883 2300 	strb.w	r2, [r3, #768]	; 0x300
 8000c34:	e00a      	b.n	8000c4c <__NVIC_SetPriority+0x40>
 8000c36:	683b      	ldr	r3, [r7, #0]
 8000c38:	b2da      	uxtb	r2, r3
 8000c3a:	4908      	ldr	r1, [pc, #32]	; (8000c5c <__NVIC_SetPriority+0x50>)
 8000c3c:	79fb      	ldrb	r3, [r7, #7]
 8000c3e:	f003 030f 	and.w	r3, r3, #15
 8000c42:	3b04      	subs	r3, #4
 8000c44:	0112      	lsls	r2, r2, #4
 8000c46:	b2d2      	uxtb	r2, r2
 8000c48:	440b      	add	r3, r1
 8000c4a:	761a      	strb	r2, [r3, #24]
 8000c4c:	bf00      	nop
 8000c4e:	370c      	adds	r7, #12
 8000c50:	46bd      	mov	sp, r7
 8000c52:	bc80      	pop	{r7}
 8000c54:	4770      	bx	lr
 8000c56:	bf00      	nop
 8000c58:	e000e100 	.word	0xe000e100
 8000c5c:	e000ed00 	.word	0xe000ed00

08000c60 <NVIC_EncodePriority>:
 8000c60:	b480      	push	{r7}
 8000c62:	b089      	sub	sp, #36	; 0x24
 8000c64:	af00      	add	r7, sp, #0
 8000c66:	60f8      	str	r0, [r7, #12]
 8000c68:	60b9      	str	r1, [r7, #8]
 8000c6a:	607a      	str	r2, [r7, #4]
 8000c6c:	68fb      	ldr	r3, [r7, #12]
 8000c6e:	f003 0307 	and.w	r3, r3, #7
 8000c72:	61fb      	str	r3, [r7, #28]
 8000c74:	69fb      	ldr	r3, [r7, #28]
 8000c76:	f1c3 0307 	rsb	r3, r3, #7
 8000c7a:	2b04      	cmp	r3, #4
 8000c7c:	bf28      	it	cs
 8000c7e:	2304      	movcs	r3, #4
 8000c80:	61bb      	str	r3, [r7, #24]
 8000c82:	69fb      	ldr	r3, [r7, #28]
 8000c84:	3304      	adds	r3, #4
 8000c86:	2b06      	cmp	r3, #6
 8000c88:	d902      	bls.n	8000c90 <NVIC_EncodePriority+0x30>
 8000c8a:	69fb      	ldr	r3, [r7, #28]
 8000c8c:	3b03      	subs	r3, #3
 8000c8e:	e000      	b.n	8000c92 <NVIC_EncodePriority+0x32>
 8000c90:	2300      	movs	r3, #0
 8000c92:	617b      	str	r3, [r7, #20]
 8000c94:	f04f 32ff 	mov.w	r2, #4294967295
 8000c98:	69bb      	ldr	r3, [r7, #24]
 8000c9a:	fa02 f303 	lsl.w	r3, r2, r3
 8000c9e:	43da      	mvns	r2, r3
 8000ca0:	68bb      	ldr	r3, [r7, #8]
 8000ca2:	401a      	ands	r2, r3
 8000ca4:	697b      	ldr	r3, [r7, #20]
 8000ca6:	409a      	lsls	r2, r3
 8000ca8:	f04f 31ff 	mov.w	r1, #4294967295
 8000cac:	697b      	ldr	r3, [r7, #20]
 8000cae:	fa01 f303 	lsl.w	r3, r1, r3
 8000cb2:	43d9      	mvns	r1, r3
 8000cb4:	687b      	ldr	r3, [r7, #4]
 8000cb6:	400b      	ands	r3, r1
 8000cb8:	4313      	orrs	r3, r2
 8000cba:	4618      	mov	r0, r3
 8000cbc:	3724      	adds	r7, #36	; 0x24
 8000cbe:	46bd      	mov	sp, r7
 8000cc0:	bc80      	pop	{r7}
 8000cc2:	4770      	bx	lr

08000cc4 <SysTick_Config>:
 8000cc4:	b580      	push	{r7, lr}
 8000cc6:	b082      	sub	sp, #8
 8000cc8:	af00      	add	r7, sp, #0
 8000cca:	6078      	str	r0, [r7, #4]
 8000ccc:	687b      	ldr	r3, [r7, #4]
 8000cce:	3b01      	subs	r3, #1
 8000cd0:	f1b3 7f80 	cmp.w	r3, #16777216	; 0x1000000
 8000cd4:	d301      	bcc.n	8000cda <SysTick_Config+0x16>
 8000cd6:	2301      	movs	r3, #1
 8000cd8:	e00f      	b.n	8000cfa <SysTick_Config+0x36>
 8000cda:	4a0a      	ldr	r2, [pc, #40]	; (8000d04 <SysTick_Config+0x40>)
 8000cdc:	687b      	ldr	r3, [r7, #4]
 8000cde:	3b01      	subs	r3, #1
 8000ce0:	6053      	str	r3, [r2, #4]
 8000ce2:	210f      	movs	r1, #15
 8000ce4:	f04f 30ff 	mov.w	r0, #4294967295
 8000ce8:	f7ff ff90 	bl	8000c0c <__NVIC_SetPriority>
 8000cec:	4b05      	ldr	r3, [pc, #20]	; (8000d04 <SysTick_Config+0x40>)
 8000cee:	2200      	movs	r2, #0
 8000cf0:	609a      	str	r2, [r3, #8]
 8000cf2:	4b04      	ldr	r3, [pc, #16]	; (8000d04 <SysTick_Config+0x40>)
 8000cf4:	2207      	movs	r2, #7
 8000cf6:	601a      	str	r2, [r3, #0]
 8000cf8:	2300      	movs	r3, #0
 8000cfa:	4618      	mov	r0, r3
 8000cfc:	3708      	adds	r7, #8
 8000cfe:	46bd      	mov	sp, r7
 8000d00:	bd80      	pop	{r7, pc}
 8000d02:	bf00      	nop
 8000d04:	e000e010 	.word	0xe000e010

08000d08 <HAL_NVIC_SetPriorityGrouping>:
 8000d08:	b580      	push	{r7, lr}
 8000d0a:	b082      	sub	sp, #8
 8000d0c:	af00      	add	r7, sp, #0
 8000d0e:	6078      	str	r0, [r7, #4]
 8000d10:	6878      	ldr	r0, [r7, #4]
 8000d12:	f7ff ff49 	bl	8000ba8 <__NVIC_SetPriorityGrouping>
 8000d16:	bf00      	nop
 8000d18:	3708      	adds	r7, #8
 8000d1a:	46bd      	mov	sp, r7
 8000d1c:	bd80      	pop	{r7, pc}

08000d1e <HAL_NVIC_SetPriority>:
 8000d1e:	b580      	push	{r7, lr}
 8000d20:	b086      	sub	sp, #24
 8000d22:	af00      	add	r7, sp, #0
 8000d24:	4603      	mov	r3, r0
 8000d26:	60b9      	str	r1, [r7, #8]
 8000d28:	607a      	str	r2, [r7, #4]
 8000d2a:	73fb      	strb	r3, [r7, #15]
 8000d2c:	2300      	movs	r3, #0
 8000d2e:	617b      	str	r3, [r7, #20]
 8000d30:	f7ff ff5e 	bl	8000bf0 <__NVIC_GetPriorityGrouping>
 8000d34:	6178      	str	r0, [r7, #20]
 8000d36:	687a      	ldr	r2, [r7, #4]
 8000d38:	68b9      	ldr	r1, [r7, #8]
 8000d3a:	6978      	ldr	r0, [r7, #20]
 8000d3c:	f7ff ff90 	bl	8000c60 <NVIC_EncodePriority>
 8000d40:	4602      	mov	r2, r0
 8000d42:	f997 300f 	ldrsb.w	r3, [r7, #15]
 8000d46:	4611      	mov	r1, r2
 8000d48:	4618      	mov	r0, r3
 8000d4a:	f7ff ff5f 	bl	8000c0c <__NVIC_SetPriority>
 8000d4e:	bf00      	nop
 8000d50:	3718      	adds	r7, #24
 8000d52:	46bd      	mov	sp, r7
 8000d54:	bd80      	pop	{r7, pc}

08000d56 <HAL_SYSTICK_Config>:
 8000d56:	b580      	push	{r7, lr}
 8000d58:	b082      	sub	sp, #8
 8000d5a:	af00      	add	r7, sp, #0
 8000d5c:	6078      	str	r0, [r7, #4]
 8000d5e:	6878      	ldr	r0, [r7, #4]
 8000d60:	f7ff ffb0 	bl	8000cc4 <SysTick_Config>
 8000d64:	4603      	mov	r3, r0
 8000d66:	4618      	mov	r0, r3
 8000d68:	3708      	adds	r7, #8
 8000d6a:	46bd      	mov	sp, r7
 8000d6c:	bd80      	pop	{r7, pc}
	...

08000d70 <HAL_RCC_OscConfig>:
 8000d70:	b580      	push	{r7, lr}
 8000d72:	b086      	sub	sp, #24
 8000d74:	af00      	add	r7, sp, #0
 8000d76:	6078      	str	r0, [r7, #4]
 8000d78:	687b      	ldr	r3, [r7, #4]
 8000d7a:	2b00      	cmp	r3, #0
 8000d7c:	d101      	bne.n	8000d82 <HAL_RCC_OscConfig+0x12>
 8000d7e:	2301      	movs	r3, #1
 8000d80:	e26c      	b.n	800125c <HAL_RCC_OscConfig+0x4ec>
 8000d82:	687b      	ldr	r3, [r7, #4]
 8000d84:	681b      	ldr	r3, [r3, #0]
 8000d86:	f003 0301 	and.w	r3, r3, #1
 8000d8a:	2b00      	cmp	r3, #0
 8000d8c:	f000 8087 	beq.w	8000e9e <HAL_RCC_OscConfig+0x12e>
 8000d90:	4b92      	ldr	r3, [pc, #584]	; (8000fdc <HAL_RCC_OscConfig+0x26c>)
 8000d92:	685b      	ldr	r3, [r3, #4]
 8000d94:	f003 030c 	and.w	r3, r3, #12
 8000d98:	2b04      	cmp	r3, #4
 8000d9a:	d00c      	beq.n	8000db6 <HAL_RCC_OscConfig+0x46>
 8000d9c:	4b8f      	ldr	r3, [pc, #572]	; (8000fdc <HAL_RCC_OscConfig+0x26c>)
 8000d9e:	685b      	ldr	r3, [r3, #4]
 8000da0:	f003 030c 	and.w	r3, r3, #12
 8000da4:	2b08      	cmp	r3, #8
 8000da6:	d112      	bne.n	8000dce <HAL_RCC_OscConfig+0x5e>
 8000da8:	4b8c      	ldr	r3, [pc, #560]	; (8000fdc <HAL_RCC_OscConfig+0x26c>)
 8000daa:	685b      	ldr	r3, [r3, #4]
 8000dac:	f403 3380 	and.w	r3, r3, #65536	; 0x10000
 8000db0:	f5b3 3f80 	cmp.w	r3, #65536	; 0x10000
 8000db4:	d10b      	bne.n	8000dce <HAL_RCC_OscConfig+0x5e>
 8000db6:	4b89      	ldr	r3, [pc, #548]	; (8000fdc <HAL_RCC_OscConfig+0x26c>)
 8000db8:	681b      	ldr	r3, [r3, #0]
 8000dba:	f403 3300 	and.w	r3, r3, #131072	; 0x20000
 8000dbe:	2b00      	cmp	r3, #0
 8000dc0:	d06c      	beq.n	8000e9c <HAL_RCC_OscConfig+0x12c>
 8000dc2:	687b      	ldr	r3, [r7, #4]
 8000dc4:	685b      	ldr	r3, [r3, #4]
 8000dc6:	2b00      	cmp	r3, #0
 8000dc8:	d168      	bne.n	8000e9c <HAL_RCC_OscConfig+0x12c>
 8000dca:	2301      	movs	r3, #1
 8000dcc:	e246      	b.n	800125c <HAL_RCC_OscConfig+0x4ec>
 8000dce:	687b      	ldr	r3, [r7, #4]
 8000dd0:	685b      	ldr	r3, [r3, #4]
 8000dd2:	f5b3 3f80 	cmp.w	r3, #65536	; 0x10000
 8000dd6:	d106      	bne.n	8000de6 <HAL_RCC_OscConfig+0x76>
 8000dd8:	4b80      	ldr	r3, [pc, #512]	; (8000fdc <HAL_RCC_OscConfig+0x26c>)
 8000dda:	681b      	ldr	r3, [r3, #0]
 8000ddc:	4a7f      	ldr	r2, [pc, #508]	; (8000fdc <HAL_RCC_OscConfig+0x26c>)
 8000dde:	f443 3380 	orr.w	r3, r3, #65536	; 0x10000
 8000de2:	6013      	str	r3, [r2, #0]
 8000de4:	e02e      	b.n	8000e44 <HAL_RCC_OscConfig+0xd4>
 8000de6:	687b      	ldr	r3, [r7, #4]
 8000de8:	685b      	ldr	r3, [r3, #4]
 8000dea:	2b00      	cmp	r3, #0
 8000dec:	d10c      	bne.n	8000e08 <HAL_RCC_OscConfig+0x98>
 8000dee:	4b7b      	ldr	r3, [pc, #492]	; (8000fdc <HAL_RCC_OscConfig+0x26c>)
 8000df0:	681b      	ldr	r3, [r3, #0]
 8000df2:	4a7a      	ldr	r2, [pc, #488]	; (8000fdc <HAL_RCC_OscConfig+0x26c>)
 8000df4:	f423 3380 	bic.w	r3, r3, #65536	; 0x10000
 8000df8:	6013      	str	r3, [r2, #0]
 8000dfa:	4b78      	ldr	r3, [pc, #480]	; (8000fdc <HAL_RCC_OscConfig+0x26c>)
 8000dfc:	681b      	ldr	r3, [r3, #0]
 8000dfe:	4a77      	ldr	r2, [pc, #476]	; (8000fdc <HAL_RCC_OscConfig+0x26c>)
 8000e00:	f423 2380 	bic.w	r3, r3, #262144	; 0x40000
 8000e04:	6013      	str	r3, [r2, #0]
 8000e06:	e01d      	b.n	8000e44 <HAL_RCC_OscConfig+0xd4>
 8000e08:	687b      	ldr	r3, [r7, #4]
 8000e0a:	685b      	ldr	r3, [r3, #4]
 8000e0c:	f5b3 2fa0 	cmp.w	r3, #327680	; 0x50000
 8000e10:	d10c      	bne.n	8000e2c <HAL_RCC_OscConfig+0xbc>
 8000e12:	4b72      	ldr	r3, [pc, #456]	; (8000fdc <HAL_RCC_OscConfig+0x26c>)
 8000e14:	681b      	ldr	r3, [r3, #0]
 8000e16:	4a71      	ldr	r2, [pc, #452]	; (8000fdc <HAL_RCC_OscConfig+0x26c>)
 8000e18:	f443 2380 	orr.w	r3, r3, #262144	; 0x40000
 8000e1c:	6013      	str	r3, [r2, #0]
 8000e1e:	4b6f      	ldr	r3, [pc, #444]	; (8000fdc <HAL_RCC_OscConfig+0x26c>)
 8000e20:	681b      	ldr	r3, [r3, #0]
 8000e22:	4a6e      	ldr	r2, [pc, #440]	; (8000fdc <HAL_RCC_OscConfig+0x26c>)
 8000e24:	f443 3380 	orr.w	r3, r3, #65536	; 0x10000
 8000e28:	6013      	str	r3, [r2, #0]
 8000e2a:	e00b      	b.n	8000e44 <HAL_RCC_OscConfig+0xd4>
 8000e2c:	4b6b      	ldr	r3, [pc, #428]	; (8000fdc <HAL_RCC_OscConfig+0x26c>)
 8000e2e:	681b      	ldr	r3, [r3, #0]
 8000e30:	4a6a      	ldr	r2, [pc, #424]	; (8000fdc <HAL_RCC_OscConfig+0x26c>)
 8000e32:	f423 3380 	bic.w	r3, r3, #65536	; 0x10000
 8000e36:	6013      	str	r3, [r2, #0]
 8000e38:	4b68      	ldr	r3, [pc, #416]	; (8000fdc <HAL_RCC_OscConfig+0x26c>)
 8000e3a:	681b      	ldr	r3, [r3, #0]
 8000e3c:	4a67      	ldr	r2, [pc, #412]	; (8000fdc <HAL_RCC_OscConfig+0x26c>)
 8000e3e:	f423 2380 	bic.w	r3, r3, #262144	; 0x40000
 8000e42:	6013      	str	r3, [r2, #0]
 8000e44:	687b      	ldr	r3, [r7, #4]
 8000e46:	685b      	ldr	r3, [r3, #4]
 8000e48:	2b00      	cmp	r3, #0
 8000e4a:	d013      	beq.n	8000e74 <HAL_RCC_OscConfig+0x104>
 8000e4c:	f7ff fea2 	bl	8000b94 <HAL_GetTick>
 8000e50:	6138      	str	r0, [r7, #16]
 8000e52:	e008      	b.n	8000e66 <HAL_RCC_OscConfig+0xf6>
 8000e54:	f7ff fe9e 	bl	8000b94 <HAL_GetTick>
 8000e58:	4602      	mov	r2, r0
 8000e5a:	693b      	ldr	r3, [r7, #16]
 8000e5c:	1ad3      	subs	r3, r2, r3
 8000e5e:	2b64      	cmp	r3, #100	; 0x64
 8000e60:	d901      	bls.n	8000e66 <HAL_RCC_OscConfig+0xf6>
 8000e62:	2303      	movs	r3, #3
 8000e64:	e1fa      	b.n	800125c <HAL_RCC_OscConfig+0x4ec>
 8000e66:	4b5d      	ldr	r3, [pc, #372]	; (8000fdc <HAL_RCC_OscConfig+0x26c>)
 8000e68:	681b      	ldr	r3, [r3, #0]
 8000e6a:	f403 3300 	and.w	r3, r3, #131072	; 0x20000
 8000e6e:	2b00      	cmp	r3, #0
 8000e70:	d0f0      	beq.n	8000e54 <HAL_RCC_OscConfig+0xe4>
 8000e72:	e014      	b.n	8000e9e <HAL_RCC_OscConfig+0x12e>
 8000e74:	f7ff fe8e 	bl	8000b94 <HAL_GetTick>
 8000e78:	6138      	str	r0, [r7, #16]
 8000e7a:	e008      	b.n	8000e8e <HAL_RCC_OscConfig+0x11e>
 8000e7c:	f7ff fe8a 	bl	8000b94 <HAL_GetTick>
 8000e80:	4602      	mov	r2, r0
 8000e82:	693b      	ldr	r3, [r7, #16]
 8000e84:	1ad3      	subs	r3, r2, r3
 8000e86:	2b64      	cmp	r3, #100	; 0x64
 8000e88:	d901      	bls.n	8000e8e <HAL_RCC_OscConfig+0x11e>
 8000e8a:	2303      	movs	r3, #3
 8000e8c:	e1e6      	b.n	800125c <HAL_RCC_OscConfig+0x4ec>
 8000e8e:	4b53      	ldr	r3, [pc, #332]	; (8000fdc <HAL_RCC_OscConfig+0x26c>)
 8000e90:	681b      	ldr	r3, [r3, #0]
 8000e92:	f403 3300 	and.w	r3, r3, #131072	; 0x20000
 8000e96:	2b00      	cmp	r3, #0
 8000e98:	d1f0      	bne.n	8000e7c <HAL_RCC_OscConfig+0x10c>
 8000e9a:	e000      	b.n	8000e9e <HAL_RCC_OscConfig+0x12e>
 8000e9c:	bf00      	nop
 8000e9e:	687b      	ldr	r3, [r7, #4]
 8000ea0:	681b      	ldr	r3, [r3, #0]
 8000ea2:	f003 0302 	and.w	r3, r3, #2
 8000ea6:	2b00      	cmp	r3, #0
 8000ea8:	d063      	beq.n	8000f72 <HAL_RCC_OscConfig+0x202>
 8000eaa:	4b4c      	ldr	r3, [pc, #304]	; (8000fdc <HAL_RCC_OscConfig+0x26c>)
 8000eac:	685b      	ldr	r3, [r3, #4]
 8000eae:	f003 030c 	and.w	r3, r3, #12
 8000eb2:	2b00      	cmp	r3, #0
 8000eb4:	d00b      	beq.n	8000ece <HAL_RCC_OscConfig+0x15e>
 8000eb6:	4b49      	ldr	r3, [pc, #292]	; (8000fdc <HAL_RCC_OscConfig+0x26c>)
 8000eb8:	685b      	ldr	r3, [r3, #4]
 8000eba:	f003 030c 	and.w	r3, r3, #12
 8000ebe:	2b08      	cmp	r3, #8
 8000ec0:	d11c      	bne.n	8000efc <HAL_RCC_OscConfig+0x18c>
 8000ec2:	4b46      	ldr	r3, [pc, #280]	; (8000fdc <HAL_RCC_OscConfig+0x26c>)
 8000ec4:	685b      	ldr	r3, [r3, #4]
 8000ec6:	f403 3380 	and.w	r3, r3, #65536	; 0x10000
 8000eca:	2b00      	cmp	r3, #0
 8000ecc:	d116      	bne.n	8000efc <HAL_RCC_OscConfig+0x18c>
 8000ece:	4b43      	ldr	r3, [pc, #268]	; (8000fdc <HAL_RCC_OscConfig+0x26c>)
 8000ed0:	681b      	ldr	r3, [r3, #0]
 8000ed2:	f003 0302 	and.w	r3, r3, #2
 8000ed6:	2b00      	cmp	r3, #0
 8000ed8:	d005      	beq.n	8000ee6 <HAL_RCC_OscConfig+0x176>
 8000eda:	687b      	ldr	r3, [r7, #4]
 8000edc:	691b      	ldr	r3, [r3, #16]
 8000ede:	2b01      	cmp	r3, #1
 8000ee0:	d001      	beq.n	8000ee6 <HAL_RCC_OscConfig+0x176>
 8000ee2:	2301      	movs	r3, #1
 8000ee4:	e1ba      	b.n	800125c <HAL_RCC_OscConfig+0x4ec>
 8000ee6:	4b3d      	ldr	r3, [pc, #244]	; (8000fdc <HAL_RCC_OscConfig+0x26c>)
 8000ee8:	681b      	ldr	r3, [r3, #0]
 8000eea:	f023 02f8 	bic.w	r2, r3, #248	; 0xf8
 8000eee:	687b      	ldr	r3, [r7, #4]
 8000ef0:	695b      	ldr	r3, [r3, #20]
 8000ef2:	00db      	lsls	r3, r3, #3
 8000ef4:	4939      	ldr	r1, [pc, #228]	; (8000fdc <HAL_RCC_OscConfig+0x26c>)
 8000ef6:	4313      	orrs	r3, r2
 8000ef8:	600b      	str	r3, [r1, #0]
 8000efa:	e03a      	b.n	8000f72 <HAL_RCC_OscConfig+0x202>
 8000efc:	687b      	ldr	r3, [r7, #4]
 8000efe:	691b      	ldr	r3, [r3, #16]
 8000f00:	2b00      	cmp	r3, #0
 8000f02:	d020      	beq.n	8000f46 <HAL_RCC_OscConfig+0x1d6>
 8000f04:	4b36      	ldr	r3, [pc, #216]	; (8000fe0 <HAL_RCC_OscConfig+0x270>)
 8000f06:	2201      	movs	r2, #1
 8000f08:	601a      	str	r2, [r3, #0]
 8000f0a:	f7ff fe43 	bl	8000b94 <HAL_GetTick>
 8000f0e:	6138      	str	r0, [r7, #16]
 8000f10:	e008      	b.n	8000f24 <HAL_RCC_OscConfig+0x1b4>
 8000f12:	f7ff fe3f 	bl	8000b94 <HAL_GetTick>
 8000f16:	4602      	mov	r2, r0
 8000f18:	693b      	ldr	r3, [r7, #16]
 8000f1a:	1ad3      	subs	r3, r2, r3
 8000f1c:	2b02      	cmp	r3, #2
 8000f1e:	d901      	bls.n	8000f24 <HAL_RCC_OscConfig+0x1b4>
 8000f20:	2303      	movs	r3, #3
 8000f22:	e19b      	b.n	800125c <HAL_RCC_OscConfig+0x4ec>
 8000f24:	4b2d      	ldr	r3, [pc, #180]	; (8000fdc <HAL_RCC_OscConfig+0x26c>)
 8000f26:	681b      	ldr	r3, [r3, #0]
 8000f28:	f003 0302 	and.w	r3, r3, #2
 8000f2c:	2b00      	cmp	r3, #0
 8000f2e:	d0f0      	beq.n	8000f12 <HAL_RCC_OscConfig+0x1a2>
 8000f30:	4b2a      	ldr	r3, [pc, #168]	; (8000fdc <HAL_RCC_OscConfig+0x26c>)
 8000f32:	681b      	ldr	r3, [r3, #0]
 8000f34:	f023 02f8 	bic.w	r2, r3, #248	; 0xf8
 8000f38:	687b      	ldr	r3, [r7, #4]
 8000f3a:	695b      	ldr	r3, [r3, #20]
 8000f3c:	00db      	lsls	r3, r3, #3
 8000f3e:	4927      	ldr	r1, [pc, #156]	; (8000fdc <HAL_RCC_OscConfig+0x26c>)
 8000f40:	4313      	orrs	r3, r2
 8000f42:	600b      	str	r3, [r1, #0]
 8000f44:	e015      	b.n	8000f72 <HAL_RCC_OscConfig+0x202>
 8000f46:	4b26      	ldr	r3, [pc, #152]	; (8000fe0 <HAL_RCC_OscConfig+0x270>)
 8000f48:	2200      	movs	r2, #0
 8000f4a:	601a      	str	r2, [r3, #0]
 8000f4c:	f7ff fe22 	bl	8000b94 <HAL_GetTick>
 8000f50:	6138      	str	r0, [r7, #16]
 8000f52:	e008      	b.n	8000f66 <HAL_RCC_OscConfig+0x1f6>
 8000f54:	f7ff fe1e 	bl	8000b94 <HAL_GetTick>
 8000f58:	4602      	mov	r2, r0
 8000f5a:	693b      	ldr	r3, [r7, #16]
 8000f5c:	1ad3      	subs	r3, r2, r3
 8000f5e:	2b02      	cmp	r3, #2
 8000f60:	d901      	bls.n	8000f66 <HAL_RCC_OscConfig+0x1f6>
 8000f62:	2303      	movs	r3, #3
 8000f64:	e17a      	b.n	800125c <HAL_RCC_OscConfig+0x4ec>
 8000f66:	4b1d      	ldr	r3, [pc, #116]	; (8000fdc <HAL_RCC_OscConfig+0x26c>)
 8000f68:	681b      	ldr	r3, [r3, #0]
 8000f6a:	f003 0302 	and.w	r3, r3, #2
 8000f6e:	2b00      	cmp	r3, #0
 8000f70:	d1f0      	bne.n	8000f54 <HAL_RCC_OscConfig+0x1e4>
 8000f72:	687b      	ldr	r3, [r7, #4]
 8000f74:	681b      	ldr	r3, [r3, #0]
 8000f76:	f003 0308 	and.w	r3, r3, #8
 8000f7a:	2b00      	cmp	r3, #0
 8000f7c:	d03a      	beq.n	8000ff4 <HAL_RCC_OscConfig+0x284>
 8000f7e:	687b      	ldr	r3, [r7, #4]
 8000f80:	699b      	ldr	r3, [r3, #24]
 8000f82:	2b00      	cmp	r3, #0
 8000f84:	d019      	beq.n	8000fba <HAL_RCC_OscConfig+0x24a>
 8000f86:	4b17      	ldr	r3, [pc, #92]	; (8000fe4 <HAL_RCC_OscConfig+0x274>)
 8000f88:	2201      	movs	r2, #1
 8000f8a:	601a      	str	r2, [r3, #0]
 8000f8c:	f7ff fe02 	bl	8000b94 <HAL_GetTick>
 8000f90:	6138      	str	r0, [r7, #16]
 8000f92:	e008      	b.n	8000fa6 <HAL_RCC_OscConfig+0x236>
 8000f94:	f7ff fdfe 	bl	8000b94 <HAL_GetTick>
 8000f98:	4602      	mov	r2, r0
 8000f9a:	693b      	ldr	r3, [r7, #16]
 8000f9c:	1ad3      	subs	r3, r2, r3
 8000f9e:	2b02      	cmp	r3, #2
 8000fa0:	d901      	bls.n	8000fa6 <HAL_RCC_OscConfig+0x236>
 8000fa2:	2303      	movs	r3, #3
 8000fa4:	e15a      	b.n	800125c <HAL_RCC_OscConfig+0x4ec>
 8000fa6:	4b0d      	ldr	r3, [pc, #52]	; (8000fdc <HAL_RCC_OscConfig+0x26c>)
 8000fa8:	6a5b      	ldr	r3, [r3, #36]	; 0x24
 8000faa:	f003 0302 	and.w	r3, r3, #2
 8000fae:	2b00      	cmp	r3, #0
 8000fb0:	d0f0      	beq.n	8000f94 <HAL_RCC_OscConfig+0x224>
 8000fb2:	2001      	movs	r0, #1
 8000fb4:	f000 faa8 	bl	8001508 <RCC_Delay>
 8000fb8:	e01c      	b.n	8000ff4 <HAL_RCC_OscConfig+0x284>
 8000fba:	4b0a      	ldr	r3, [pc, #40]	; (8000fe4 <HAL_RCC_OscConfig+0x274>)
 8000fbc:	2200      	movs	r2, #0
 8000fbe:	601a      	str	r2, [r3, #0]
 8000fc0:	f7ff fde8 	bl	8000b94 <HAL_GetTick>
 8000fc4:	6138      	str	r0, [r7, #16]
 8000fc6:	e00f      	b.n	8000fe8 <HAL_RCC_OscConfig+0x278>
 8000fc8:	f7ff fde4 	bl	8000b94 <HAL_GetTick>
 8000fcc:	4602      	mov	r2, r0
 8000fce:	693b      	ldr	r3, [r7, #16]
 8000fd0:	1ad3      	subs	r3, r2, r3
 8000fd2:	2b02      	cmp	r3, #2
 8000fd4:	d908      	bls.n	8000fe8 <HAL_RCC_OscConfig+0x278>
 8000fd6:	2303      	movs	r3, #3
 8000fd8:	e140      	b.n	800125c <HAL_RCC_OscConfig+0x4ec>
 8000fda:	bf00      	nop
 8000fdc:	40021000 	.word	0x40021000
 8000fe0:	42420000 	.word	0x42420000
 8000fe4:	42420480 	.word	0x42420480
 8000fe8:	4b9e      	ldr	r3, [pc, #632]	; (8001264 <HAL_RCC_OscConfig+0x4f4>)
 8000fea:	6a5b      	ldr	r3, [r3, #36]	; 0x24
 8000fec:	f003 0302 	and.w	r3, r3, #2
 8000ff0:	2b00      	cmp	r3, #0
 8000ff2:	d1e9      	bne.n	8000fc8 <HAL_RCC_OscConfig+0x258>
 8000ff4:	687b      	ldr	r3, [r7, #4]
 8000ff6:	681b      	ldr	r3, [r3, #0]
 8000ff8:	f003 0304 	and.w	r3, r3, #4
 8000ffc:	2b00      	cmp	r3, #0
 8000ffe:	f000 80a6 	beq.w	800114e <HAL_RCC_OscConfig+0x3de>
 8001002:	2300      	movs	r3, #0
 8001004:	75fb      	strb	r3, [r7, #23]
 8001006:	4b97      	ldr	r3, [pc, #604]	; (8001264 <HAL_RCC_OscConfig+0x4f4>)
 8001008:	69db      	ldr	r3, [r3, #28]
 800100a:	f003 5380 	and.w	r3, r3, #268435456	; 0x10000000
 800100e:	2b00      	cmp	r3, #0
 8001010:	d10d      	bne.n	800102e <HAL_RCC_OscConfig+0x2be>
 8001012:	4b94      	ldr	r3, [pc, #592]	; (8001264 <HAL_RCC_OscConfig+0x4f4>)
 8001014:	69db      	ldr	r3, [r3, #28]
 8001016:	4a93      	ldr	r2, [pc, #588]	; (8001264 <HAL_RCC_OscConfig+0x4f4>)
 8001018:	f043 5380 	orr.w	r3, r3, #268435456	; 0x10000000
 800101c:	61d3      	str	r3, [r2, #28]
 800101e:	4b91      	ldr	r3, [pc, #580]	; (8001264 <HAL_RCC_OscConfig+0x4f4>)
 8001020:	69db      	ldr	r3, [r3, #28]
 8001022:	f003 5380 	and.w	r3, r3, #268435456	; 0x10000000
 8001026:	60bb      	str	r3, [r7, #8]
 8001028:	68bb      	ldr	r3, [r7, #8]
 800102a:	2301      	movs	r3, #1
 800102c:	75fb      	strb	r3, [r7, #23]
 800102e:	4b8e      	ldr	r3, [pc, #568]	; (8001268 <HAL_RCC_OscConfig+0x4f8>)
 8001030:	681b      	ldr	r3, [r3, #0]
 8001032:	f403 7380 	and.w	r3, r3, #256	; 0x100
 8001036:	2b00      	cmp	r3, #0
 8001038:	d118      	bne.n	800106c <HAL_RCC_OscConfig+0x2fc>
 800103a:	4b8b      	ldr	r3, [pc, #556]	; (8001268 <HAL_RCC_OscConfig+0x4f8>)
 800103c:	681b      	ldr	r3, [r3, #0]
 800103e:	4a8a      	ldr	r2, [pc, #552]	; (8001268 <HAL_RCC_OscConfig+0x4f8>)
 8001040:	f443 7380 	orr.w	r3, r3, #256	; 0x100
 8001044:	6013      	str	r3, [r2, #0]
 8001046:	f7ff fda5 	bl	8000b94 <HAL_GetTick>
 800104a:	6138      	str	r0, [r7, #16]
 800104c:	e008      	b.n	8001060 <HAL_RCC_OscConfig+0x2f0>
 800104e:	f7ff fda1 	bl	8000b94 <HAL_GetTick>
 8001052:	4602      	mov	r2, r0
 8001054:	693b      	ldr	r3, [r7, #16]
 8001056:	1ad3      	subs	r3, r2, r3
 8001058:	2b64      	cmp	r3, #100	; 0x64
 800105a:	d901      	bls.n	8001060 <HAL_RCC_OscConfig+0x2f0>
 800105c:	2303      	movs	r3, #3
 800105e:	e0fd      	b.n	800125c <HAL_RCC_OscConfig+0x4ec>
 8001060:	4b81      	ldr	r3, [pc, #516]	; (8001268 <HAL_RCC_OscConfig+0x4f8>)
 8001062:	681b      	ldr	r3, [r3, #0]
 8001064:	f403 7380 	and.w	r3, r3, #256	; 0x100
 8001068:	2b00      	cmp	r3, #0
 800106a:	d0f0      	beq.n	800104e <HAL_RCC_OscConfig+0x2de>
 800106c:	687b      	ldr	r3, [r7, #4]
 800106e:	68db      	ldr	r3, [r3, #12]
 8001070:	2b01      	cmp	r3, #1
 8001072:	d106      	bne.n	8001082 <HAL_RCC_OscConfig+0x312>
 8001074:	4b7b      	ldr	r3, [pc, #492]	; (8001264 <HAL_RCC_OscConfig+0x4f4>)
 8001076:	6a1b      	ldr	r3, [r3, #32]
 8001078:	4a7a      	ldr	r2, [pc, #488]	; (8001264 <HAL_RCC_OscConfig+0x4f4>)
 800107a:	f043 0301 	orr.w	r3, r3, #1
 800107e:	6213      	str	r3, [r2, #32]
 8001080:	e02d      	b.n	80010de <HAL_RCC_OscConfig+0x36e>
 8001082:	687b      	ldr	r3, [r7, #4]
 8001084:	68db      	ldr	r3, [r3, #12]
 8001086:	2b00      	cmp	r3, #0
 8001088:	d10c      	bne.n	80010a4 <HAL_RCC_OscConfig+0x334>
 800108a:	4b76      	ldr	r3, [pc, #472]	; (8001264 <HAL_RCC_OscConfig+0x4f4>)
 800108c:	6a1b      	ldr	r3, [r3, #32]
 800108e:	4a75      	ldr	r2, [pc, #468]	; (8001264 <HAL_RCC_OscConfig+0x4f4>)
 8001090:	f023 0301 	bic.w	r3, r3, #1
 8001094:	6213      	str	r3, [r2, #32]
 8001096:	4b73      	ldr	r3, [pc, #460]	; (8001264 <HAL_RCC_OscConfig+0x4f4>)
 8001098:	6a1b      	ldr	r3, [r3, #32]
 800109a:	4a72      	ldr	r2, [pc, #456]	; (8001264 <HAL_RCC_OscConfig+0x4f4>)
 800109c:	f023 0304 	bic.w	r3, r3, #4
 80010a0:	6213      	str	r3, [r2, #32]
 80010a2:	e01c      	b.n	80010de <HAL_RCC_OscConfig+0x36e>
 80010a4:	687b      	ldr	r3, [r7, #4]
 80010a6:	68db      	ldr	r3, [r3, #12]
 80010a8:	2b05      	cmp	r3, #5
 80010aa:	d10c      	bne.n	80010c6 <HAL_RCC_OscConfig+0x356>
 80010ac:	4b6d      	ldr	r3, [pc, #436]	; (8001264 <HAL_RCC_OscConfig+0x4f4>)
 80010ae:	6a1b      	ldr	r3, [r3, #32]
 80010b0:	4a6c      	ldr	r2, [pc, #432]	; (8001264 <HAL_RCC_OscConfig+0x4f4>)
 80010b2:	f043 0304 	orr.w	r3, r3, #4
 80010b6:	6213      	str	r3, [r2, #32]
 80010b8:	4b6a      	ldr	r3, [pc, #424]	; (8001264 <HAL_RCC_OscConfig+0x4f4>)
 80010ba:	6a1b      	ldr	r3, [r3, #32]
 80010bc:	4a69      	ldr	r2, [pc, #420]	; (8001264 <HAL_RCC_OscConfig+0x4f4>)
 80010be:	f043 0301 	orr.w	r3, r3, #1
 80010c2:	6213      	str	r3, [r2, #32]
 80010c4:	e00b      	b.n	80010de <HAL_RCC_OscConfig+0x36e>
 80010c6:	4b67      	ldr	r3, [pc, #412]	; (8001264 <HAL_RCC_OscConfig+0x4f4>)
 80010c8:	6a1b      	ldr	r3, [r3, #32]
 80010ca:	4a66      	ldr	r2, [pc, #408]	; (8001264 <HAL_RCC_OscConfig+0x4f4>)
 80010cc:	f023 0301 	bic.w	r3, r3, #1
 80010d0:	6213      	str	r3, [r2, #32]
 80010d2:	4b64      	ldr	r3, [pc, #400]	; (8001264 <HAL_RCC_OscConfig+0x4f4>)
 80010d4:	6a1b      	ldr	r3, [r3, #32]
 80010d6:	4a63      	ldr	r2, [pc, #396]	; (8001264 <HAL_RCC_OscConfig+0x4f4>)
 80010d8:	f023 0304 	bic.w	r3, r3, #4
 80010dc:	6213      	str	r3, [r2, #32]
 80010de:	687b      	ldr	r3, [r7, #4]
 80010e0:	68db      	ldr	r3, [r3, #12]
 80010e2:	2b00      	cmp	r3, #0
 80010e4:	d015      	beq.n	8001112 <HAL_RCC_OscConfig+0x3a2>
 80010e6:	f7ff fd55 	bl	8000b94 <HAL_GetTick>
 80010ea:	6138      	str	r0, [r7, #16]
 80010ec:	e00a      	b.n	8001104 <HAL_RCC_OscConfig+0x394>
 80010ee:	f7ff fd51 	bl	8000b94 <HAL_GetTick>
 80010f2:	4602      	mov	r2, r0
 80010f4:	693b      	ldr	r3, [r7, #16]
 80010f6:	1ad3      	subs	r3, r2, r3
 80010f8:	f241 3288 	movw	r2, #5000	; 0x1388
 80010fc:	4293      	cmp	r3, r2
 80010fe:	d901      	bls.n	8001104 <HAL_RCC_OscConfig+0x394>
 8001100:	2303      	movs	r3, #3
 8001102:	e0ab      	b.n	800125c <HAL_RCC_OscConfig+0x4ec>
 8001104:	4b57      	ldr	r3, [pc, #348]	; (8001264 <HAL_RCC_OscConfig+0x4f4>)
 8001106:	6a1b      	ldr	r3, [r3, #32]
 8001108:	f003 0302 	and.w	r3, r3, #2
 800110c:	2b00      	cmp	r3, #0
 800110e:	d0ee      	beq.n	80010ee <HAL_RCC_OscConfig+0x37e>
 8001110:	e014      	b.n	800113c <HAL_RCC_OscConfig+0x3cc>
 8001112:	f7ff fd3f 	bl	8000b94 <HAL_GetTick>
 8001116:	6138      	str	r0, [r7, #16]
 8001118:	e00a      	b.n	8001130 <HAL_RCC_OscConfig+0x3c0>
 800111a:	f7ff fd3b 	bl	8000b94 <HAL_GetTick>
 800111e:	4602      	mov	r2, r0
 8001120:	693b      	ldr	r3, [r7, #16]
 8001122:	1ad3      	subs	r3, r2, r3
 8001124:	f241 3288 	movw	r2, #5000	; 0x1388
 8001128:	4293      	cmp	r3, r2
 800112a:	d901      	bls.n	8001130 <HAL_RCC_OscConfig+0x3c0>
 800112c:	2303      	movs	r3, #3
 800112e:	e095      	b.n	800125c <HAL_RCC_OscConfig+0x4ec>
 8001130:	4b4c      	ldr	r3, [pc, #304]	; (8001264 <HAL_RCC_OscConfig+0x4f4>)
 8001132:	6a1b      	ldr	r3, [r3, #32]
 8001134:	f003 0302 	and.w	r3, r3, #2
 8001138:	2b00      	cmp	r3, #0
 800113a:	d1ee      	bne.n	800111a <HAL_RCC_OscConfig+0x3aa>
 800113c:	7dfb      	ldrb	r3, [r7, #23]
 800113e:	2b01      	cmp	r3, #1
 8001140:	d105      	bne.n	800114e <HAL_RCC_OscConfig+0x3de>
 8001142:	4b48      	ldr	r3, [pc, #288]	; (8001264 <HAL_RCC_OscConfig+0x4f4>)
 8001144:	69db      	ldr	r3, [r3, #28]
 8001146:	4a47      	ldr	r2, [pc, #284]	; (8001264 <HAL_RCC_OscConfig+0x4f4>)
 8001148:	f023 5380 	bic.w	r3, r3, #268435456	; 0x10000000
 800114c:	61d3      	str	r3, [r2, #28]
 800114e:	687b      	ldr	r3, [r7, #4]
 8001150:	69db      	ldr	r3, [r3, #28]
 8001152:	2b00      	cmp	r3, #0
 8001154:	f000 8081 	beq.w	800125a <HAL_RCC_OscConfig+0x4ea>
 8001158:	4b42      	ldr	r3, [pc, #264]	; (8001264 <HAL_RCC_OscConfig+0x4f4>)
 800115a:	685b      	ldr	r3, [r3, #4]
 800115c:	f003 030c 	and.w	r3, r3, #12
 8001160:	2b08      	cmp	r3, #8
 8001162:	d061      	beq.n	8001228 <HAL_RCC_OscConfig+0x4b8>
 8001164:	687b      	ldr	r3, [r7, #4]
 8001166:	69db      	ldr	r3, [r3, #28]
 8001168:	2b02      	cmp	r3, #2
 800116a:	d146      	bne.n	80011fa <HAL_RCC_OscConfig+0x48a>
 800116c:	4b3f      	ldr	r3, [pc, #252]	; (800126c <HAL_RCC_OscConfig+0x4fc>)
 800116e:	2200      	movs	r2, #0
 8001170:	601a      	str	r2, [r3, #0]
 8001172:	f7ff fd0f 	bl	8000b94 <HAL_GetTick>
 8001176:	6138      	str	r0, [r7, #16]
 8001178:	e008      	b.n	800118c <HAL_RCC_OscConfig+0x41c>
 800117a:	f7ff fd0b 	bl	8000b94 <HAL_GetTick>
 800117e:	4602      	mov	r2, r0
 8001180:	693b      	ldr	r3, [r7, #16]
 8001182:	1ad3      	subs	r3, r2, r3
 8001184:	2b02      	cmp	r3, #2
 8001186:	d901      	bls.n	800118c <HAL_RCC_OscConfig+0x41c>
 8001188:	2303      	movs	r3, #3
 800118a:	e067      	b.n	800125c <HAL_RCC_OscConfig+0x4ec>
 800118c:	4b35      	ldr	r3, [pc, #212]	; (8001264 <HAL_RCC_OscConfig+0x4f4>)
 800118e:	681b      	ldr	r3, [r3, #0]
 8001190:	f003 7300 	and.w	r3, r3, #33554432	; 0x2000000
 8001194:	2b00      	cmp	r3, #0
 8001196:	d1f0      	bne.n	800117a <HAL_RCC_OscConfig+0x40a>
 8001198:	687b      	ldr	r3, [r7, #4]
 800119a:	6a1b      	ldr	r3, [r3, #32]
 800119c:	f5b3 3f80 	cmp.w	r3, #65536	; 0x10000
 80011a0:	d108      	bne.n	80011b4 <HAL_RCC_OscConfig+0x444>
 80011a2:	4b30      	ldr	r3, [pc, #192]	; (8001264 <HAL_RCC_OscConfig+0x4f4>)
 80011a4:	685b      	ldr	r3, [r3, #4]
 80011a6:	f423 3200 	bic.w	r2, r3, #131072	; 0x20000
 80011aa:	687b      	ldr	r3, [r7, #4]
 80011ac:	689b      	ldr	r3, [r3, #8]
 80011ae:	492d      	ldr	r1, [pc, #180]	; (8001264 <HAL_RCC_OscConfig+0x4f4>)
 80011b0:	4313      	orrs	r3, r2
 80011b2:	604b      	str	r3, [r1, #4]
 80011b4:	4b2b      	ldr	r3, [pc, #172]	; (8001264 <HAL_RCC_OscConfig+0x4f4>)
 80011b6:	685b      	ldr	r3, [r3, #4]
 80011b8:	f423 1274 	bic.w	r2, r3, #3997696	; 0x3d0000
 80011bc:	687b      	ldr	r3, [r7, #4]
 80011be:	6a19      	ldr	r1, [r3, #32]
 80011c0:	687b      	ldr	r3, [r7, #4]
 80011c2:	6a5b      	ldr	r3, [r3, #36]	; 0x24
 80011c4:	430b      	orrs	r3, r1
 80011c6:	4927      	ldr	r1, [pc, #156]	; (8001264 <HAL_RCC_OscConfig+0x4f4>)
 80011c8:	4313      	orrs	r3, r2
 80011ca:	604b      	str	r3, [r1, #4]
 80011cc:	4b27      	ldr	r3, [pc, #156]	; (800126c <HAL_RCC_OscConfig+0x4fc>)
 80011ce:	2201      	movs	r2, #1
 80011d0:	601a      	str	r2, [r3, #0]
 80011d2:	f7ff fcdf 	bl	8000b94 <HAL_GetTick>
 80011d6:	6138      	str	r0, [r7, #16]
 80011d8:	e008      	b.n	80011ec <HAL_RCC_OscConfig+0x47c>
 80011da:	f7ff fcdb 	bl	8000b94 <HAL_GetTick>
 80011de:	4602      	mov	r2, r0
 80011e0:	693b      	ldr	r3, [r7, #16]
 80011e2:	1ad3      	subs	r3, r2, r3
 80011e4:	2b02      	cmp	r3, #2
 80011e6:	d901      	bls.n	80011ec <HAL_RCC_OscConfig+0x47c>
 80011e8:	2303      	movs	r3, #3
 80011ea:	e037      	b.n	800125c <HAL_RCC_OscConfig+0x4ec>
 80011ec:	4b1d      	ldr	r3, [pc, #116]	; (8001264 <HAL_RCC_OscConfig+0x4f4>)
 80011ee:	681b      	ldr	r3, [r3, #0]
 80011f0:	f003 7300 	and.w	r3, r3, #33554432	; 0x2000000
 80011f4:	2b00      	cmp	r3, #0
 80011f6:	d0f0      	beq.n	80011da <HAL_RCC_OscConfig+0x46a>
 80011f8:	e02f      	b.n	800125a <HAL_RCC_OscConfig+0x4ea>
 80011fa:	4b1c      	ldr	r3, [pc, #112]	; (800126c <HAL_RCC_OscConfig+0x4fc>)
 80011fc:	2200      	movs	r2, #0
 80011fe:	601a      	str	r2, [r3, #0]
 8001200:	f7ff fcc8 	bl	8000b94 <HAL_GetTick>
 8001204:	6138      	str	r0, [r7, #16]
 8001206:	e008      	b.n	800121a <HAL_RCC_OscConfig+0x4aa>
 8001208:	f7ff fcc4 	bl	8000b94 <HAL_GetTick>
 800120c:	4602      	mov	r2, r0
 800120e:	693b      	ldr	r3, [r7, #16]
 8001210:	1ad3      	subs	r3, r2, r3
 8001212:	2b02      	cmp	r3, #2
 8001214:	d901      	bls.n	800121a <HAL_RCC_OscConfig+0x4aa>
 8001216:	2303      	movs	r3, #3
 8001218:	e020      	b.n	800125c <HAL_RCC_OscConfig+0x4ec>
 800121a:	4b12      	ldr	r3, [pc, #72]	; (8001264 <HAL_RCC_OscConfig+0x4f4>)
 800121c:	681b      	ldr	r3, [r3, #0]
 800121e:	f003 7300 	and.w	r3, r3, #33554432	; 0x2000000
 8001222:	2b00      	cmp	r3, #0
 8001224:	d1f0      	bne.n	8001208 <HAL_RCC_OscConfig+0x498>
 8001226:	e018      	b.n	800125a <HAL_RCC_OscConfig+0x4ea>
 8001228:	687b      	ldr	r3, [r7, #4]
 800122a:	69db      	ldr	r3, [r3, #28]
 800122c:	2b01      	cmp	r3, #1
 800122e:	d101      	bne.n	8001234 <HAL_RCC_OscConfig+0x4c4>
 8001230:	2301      	movs	r3, #1
 8001232:	e013      	b.n	800125c <HAL_RCC_OscConfig+0x4ec>
 8001234:	4b0b      	ldr	r3, [pc, #44]	; (8001264 <HAL_RCC_OscConfig+0x4f4>)
 8001236:	685b      	ldr	r3, [r3, #4]
 8001238:	60fb      	str	r3, [r7, #12]
 800123a:	68fb      	ldr	r3, [r7, #12]
 800123c:	f403 3280 	and.w	r2, r3, #65536	; 0x10000
 8001240:	687b      	ldr	r3, [r7, #4]
 8001242:	6a1b      	ldr	r3, [r3, #32]
 8001244:	429a      	cmp	r2, r3
 8001246:	d106      	bne.n	8001256 <HAL_RCC_OscConfig+0x4e6>
 8001248:	68fb      	ldr	r3, [r7, #12]
 800124a:	f403 1270 	and.w	r2, r3, #3932160	; 0x3c0000
 800124e:	687b      	ldr	r3, [r7, #4]
 8001250:	6a5b      	ldr	r3, [r3, #36]	; 0x24
 8001252:	429a      	cmp	r2, r3
 8001254:	d001      	beq.n	800125a <HAL_RCC_OscConfig+0x4ea>
 8001256:	2301      	movs	r3, #1
 8001258:	e000      	b.n	800125c <HAL_RCC_OscConfig+0x4ec>
 800125a:	2300      	movs	r3, #0
 800125c:	4618      	mov	r0, r3
 800125e:	3718      	adds	r7, #24
 8001260:	46bd      	mov	sp, r7
 8001262:	bd80      	pop	{r7, pc}
 8001264:	40021000 	.word	0x40021000
 8001268:	40007000 	.word	0x40007000
 800126c:	42420060 	.word	0x42420060

08001270 <HAL_RCC_ClockConfig>:
 8001270:	b580      	push	{r7, lr}
 8001272:	b084      	sub	sp, #16
 8001274:	af00      	add	r7, sp, #0
 8001276:	6078      	str	r0, [r7, #4]
 8001278:	6039      	str	r1, [r7, #0]
 800127a:	687b      	ldr	r3, [r7, #4]
 800127c:	2b00      	cmp	r3, #0
 800127e:	d101      	bne.n	8001284 <HAL_RCC_ClockConfig+0x14>
 8001280:	2301      	movs	r3, #1
 8001282:	e0d0      	b.n	8001426 <HAL_RCC_ClockConfig+0x1b6>
 8001284:	4b6a      	ldr	r3, [pc, #424]	; (8001430 <HAL_RCC_ClockConfig+0x1c0>)
 8001286:	681b      	ldr	r3, [r3, #0]
 8001288:	f003 0307 	and.w	r3, r3, #7
 800128c:	683a      	ldr	r2, [r7, #0]
 800128e:	429a      	cmp	r2, r3
 8001290:	d910      	bls.n	80012b4 <HAL_RCC_ClockConfig+0x44>
 8001292:	4b67      	ldr	r3, [pc, #412]	; (8001430 <HAL_RCC_ClockConfig+0x1c0>)
 8001294:	681b      	ldr	r3, [r3, #0]
 8001296:	f023 0207 	bic.w	r2, r3, #7
 800129a:	4965      	ldr	r1, [pc, #404]	; (8001430 <HAL_RCC_ClockConfig+0x1c0>)
 800129c:	683b      	ldr	r3, [r7, #0]
 800129e:	4313      	orrs	r3, r2
 80012a0:	600b      	str	r3, [r1, #0]
 80012a2:	4b63      	ldr	r3, [pc, #396]	; (8001430 <HAL_RCC_ClockConfig+0x1c0>)
 80012a4:	681b      	ldr	r3, [r3, #0]
 80012a6:	f003 0307 	and.w	r3, r3, #7
 80012aa:	683a      	ldr	r2, [r7, #0]
 80012ac:	429a      	cmp	r2, r3
 80012ae:	d001      	beq.n	80012b4 <HAL_RCC_ClockConfig+0x44>
 80012b0:	2301      	movs	r3, #1
 80012b2:	e0b8      	b.n	8001426 <HAL_RCC_ClockConfig+0x1b6>
 80012b4:	687b      	ldr	r3, [r7, #4]
 80012b6:	681b      	ldr	r3, [r3, #0]
 80012b8:	f003 0302 	and.w	r3, r3, #2
 80012bc:	2b00      	cmp	r3, #0
 80012be:	d020      	beq.n	8001302 <HAL_RCC_ClockConfig+0x92>
 80012c0:	687b      	ldr	r3, [r7, #4]
 80012c2:	681b      	ldr	r3, [r3, #0]
 80012c4:	f003 0304 	and.w	r3, r3, #4
 80012c8:	2b00      	cmp	r3, #0
 80012ca:	d005      	beq.n	80012d8 <HAL_RCC_ClockConfig+0x68>
 80012cc:	4b59      	ldr	r3, [pc, #356]	; (8001434 <HAL_RCC_ClockConfig+0x1c4>)
 80012ce:	685b      	ldr	r3, [r3, #4]
 80012d0:	4a58      	ldr	r2, [pc, #352]	; (8001434 <HAL_RCC_ClockConfig+0x1c4>)
 80012d2:	f443 63e0 	orr.w	r3, r3, #1792	; 0x700
 80012d6:	6053      	str	r3, [r2, #4]
 80012d8:	687b      	ldr	r3, [r7, #4]
 80012da:	681b      	ldr	r3, [r3, #0]
 80012dc:	f003 0308 	and.w	r3, r3, #8
 80012e0:	2b00      	cmp	r3, #0
 80012e2:	d005      	beq.n	80012f0 <HAL_RCC_ClockConfig+0x80>
 80012e4:	4b53      	ldr	r3, [pc, #332]	; (8001434 <HAL_RCC_ClockConfig+0x1c4>)
 80012e6:	685b      	ldr	r3, [r3, #4]
 80012e8:	4a52      	ldr	r2, [pc, #328]	; (8001434 <HAL_RCC_ClockConfig+0x1c4>)
 80012ea:	f443 5360 	orr.w	r3, r3, #14336	; 0x3800
 80012ee:	6053      	str	r3, [r2, #4]
 80012f0:	4b50      	ldr	r3, [pc, #320]	; (8001434 <HAL_RCC_ClockConfig+0x1c4>)
 80012f2:	685b      	ldr	r3, [r3, #4]
 80012f4:	f023 02f0 	bic.w	r2, r3, #240	; 0xf0
 80012f8:	687b      	ldr	r3, [r7, #4]
 80012fa:	689b      	ldr	r3, [r3, #8]
 80012fc:	494d      	ldr	r1, [pc, #308]	; (8001434 <HAL_RCC_ClockConfig+0x1c4>)
 80012fe:	4313      	orrs	r3, r2
 8001300:	604b      	str	r3, [r1, #4]
 8001302:	687b      	ldr	r3, [r7, #4]
 8001304:	681b      	ldr	r3, [r3, #0]
 8001306:	f003 0301 	and.w	r3, r3, #1
 800130a:	2b00      	cmp	r3, #0
 800130c:	d040      	beq.n	8001390 <HAL_RCC_ClockConfig+0x120>
 800130e:	687b      	ldr	r3, [r7, #4]
 8001310:	685b      	ldr	r3, [r3, #4]
 8001312:	2b01      	cmp	r3, #1
 8001314:	d107      	bne.n	8001326 <HAL_RCC_ClockConfig+0xb6>
 8001316:	4b47      	ldr	r3, [pc, #284]	; (8001434 <HAL_RCC_ClockConfig+0x1c4>)
 8001318:	681b      	ldr	r3, [r3, #0]
 800131a:	f403 3300 	and.w	r3, r3, #131072	; 0x20000
 800131e:	2b00      	cmp	r3, #0
 8001320:	d115      	bne.n	800134e <HAL_RCC_ClockConfig+0xde>
 8001322:	2301      	movs	r3, #1
 8001324:	e07f      	b.n	8001426 <HAL_RCC_ClockConfig+0x1b6>
 8001326:	687b      	ldr	r3, [r7, #4]
 8001328:	685b      	ldr	r3, [r3, #4]
 800132a:	2b02      	cmp	r3, #2
 800132c:	d107      	bne.n	800133e <HAL_RCC_ClockConfig+0xce>
 800132e:	4b41      	ldr	r3, [pc, #260]	; (8001434 <HAL_RCC_ClockConfig+0x1c4>)
 8001330:	681b      	ldr	r3, [r3, #0]
 8001332:	f003 7300 	and.w	r3, r3, #33554432	; 0x2000000
 8001336:	2b00      	cmp	r3, #0
 8001338:	d109      	bne.n	800134e <HAL_RCC_ClockConfig+0xde>
 800133a:	2301      	movs	r3, #1
 800133c:	e073      	b.n	8001426 <HAL_RCC_ClockConfig+0x1b6>
 800133e:	4b3d      	ldr	r3, [pc, #244]	; (8001434 <HAL_RCC_ClockConfig+0x1c4>)
 8001340:	681b      	ldr	r3, [r3, #0]
 8001342:	f003 0302 	and.w	r3, r3, #2
 8001346:	2b00      	cmp	r3, #0
 8001348:	d101      	bne.n	800134e <HAL_RCC_ClockConfig+0xde>
 800134a:	2301      	movs	r3, #1
 800134c:	e06b      	b.n	8001426 <HAL_RCC_ClockConfig+0x1b6>
 800134e:	4b39      	ldr	r3, [pc, #228]	; (8001434 <HAL_RCC_ClockConfig+0x1c4>)
 8001350:	685b      	ldr	r3, [r3, #4]
 8001352:	f023 0203 	bic.w	r2, r3, #3
 8001356:	687b      	ldr	r3, [r7, #4]
 8001358:	685b      	ldr	r3, [r3, #4]
 800135a:	4936      	ldr	r1, [pc, #216]	; (8001434 <HAL_RCC_ClockConfig+0x1c4>)
 800135c:	4313      	orrs	r3, r2
 800135e:	604b      	str	r3, [r1, #4]
 8001360:	f7ff fc18 	bl	8000b94 <HAL_GetTick>
 8001364:	60f8      	str	r0, [r7, #12]
 8001366:	e00a      	b.n	800137e <HAL_RCC_ClockConfig+0x10e>
 8001368:	f7ff fc14 	bl	8000b94 <HAL_GetTick>
 800136c:	4602      	mov	r2, r0
 800136e:	68fb      	ldr	r3, [r7, #12]
 8001370:	1ad3      	subs	r3, r2, r3
 8001372:	f241 3288 	movw	r2, #5000	; 0x1388
 8001376:	4293      	cmp	r3, r2
 8001378:	d901      	bls.n	800137e <HAL_RCC_ClockConfig+0x10e>
 800137a:	2303      	movs	r3, #3
 800137c:	e053      	b.n	8001426 <HAL_RCC_ClockConfig+0x1b6>
 800137e:	4b2d      	ldr	r3, [pc, #180]	; (8001434 <HAL_RCC_ClockConfig+0x1c4>)
 8001380:	685b      	ldr	r3, [r3, #4]
 8001382:	f003 020c 	and.w	r2, r3, #12
 8001386:	687b      	ldr	r3, [r7, #4]
 8001388:	685b      	ldr	r3, [r3, #4]
 800138a:	009b      	lsls	r3, r3, #2
 800138c:	429a      	cmp	r2, r3
 800138e:	d1eb      	bne.n	8001368 <HAL_RCC_ClockConfig+0xf8>
 8001390:	4b27      	ldr	r3, [pc, #156]	; (8001430 <HAL_RCC_ClockConfig+0x1c0>)
 8001392:	681b      	ldr	r3, [r3, #0]
 8001394:	f003 0307 	and.w	r3, r3, #7
 8001398:	683a      	ldr	r2, [r7, #0]
 800139a:	429a      	cmp	r2, r3
 800139c:	d210      	bcs.n	80013c0 <HAL_RCC_ClockConfig+0x150>
 800139e:	4b24      	ldr	r3, [pc, #144]	; (8001430 <HAL_RCC_ClockConfig+0x1c0>)
 80013a0:	681b      	ldr	r3, [r3, #0]
 80013a2:	f023 0207 	bic.w	r2, r3, #7
 80013a6:	4922      	ldr	r1, [pc, #136]	; (8001430 <HAL_RCC_ClockConfig+0x1c0>)
 80013a8:	683b      	ldr	r3, [r7, #0]
 80013aa:	4313      	orrs	r3, r2
 80013ac:	600b      	str	r3, [r1, #0]
 80013ae:	4b20      	ldr	r3, [pc, #128]	; (8001430 <HAL_RCC_ClockConfig+0x1c0>)
 80013b0:	681b      	ldr	r3, [r3, #0]
 80013b2:	f003 0307 	and.w	r3, r3, #7
 80013b6:	683a      	ldr	r2, [r7, #0]
 80013b8:	429a      	cmp	r2, r3
 80013ba:	d001      	beq.n	80013c0 <HAL_RCC_ClockConfig+0x150>
 80013bc:	2301      	movs	r3, #1
 80013be:	e032      	b.n	8001426 <HAL_RCC_ClockConfig+0x1b6>
 80013c0:	687b      	ldr	r3, [r7, #4]
 80013c2:	681b      	ldr	r3, [r3, #0]
 80013c4:	f003 0304 	and.w	r3, r3, #4
 80013c8:	2b00      	cmp	r3, #0
 80013ca:	d008      	beq.n	80013de <HAL_RCC_ClockConfig+0x16e>
 80013cc:	4b19      	ldr	r3, [pc, #100]	; (8001434 <HAL_RCC_ClockConfig+0x1c4>)
 80013ce:	685b      	ldr	r3, [r3, #4]
 80013d0:	f423 62e0 	bic.w	r2, r3, #1792	; 0x700
 80013d4:	687b      	ldr	r3, [r7, #4]
 80013d6:	68db      	ldr	r3, [r3, #12]
 80013d8:	4916      	ldr	r1, [pc, #88]	; (8001434 <HAL_RCC_ClockConfig+0x1c4>)
 80013da:	4313      	orrs	r3, r2
 80013dc:	604b      	str	r3, [r1, #4]
 80013de:	687b      	ldr	r3, [r7, #4]
 80013e0:	681b      	ldr	r3, [r3, #0]
 80013e2:	f003 0308 	and.w	r3, r3, #8
 80013e6:	2b00      	cmp	r3, #0
 80013e8:	d009      	beq.n	80013fe <HAL_RCC_ClockConfig+0x18e>
 80013ea:	4b12      	ldr	r3, [pc, #72]	; (8001434 <HAL_RCC_ClockConfig+0x1c4>)
 80013ec:	685b      	ldr	r3, [r3, #4]
 80013ee:	f423 5260 	bic.w	r2, r3, #14336	; 0x3800
 80013f2:	687b      	ldr	r3, [r7, #4]
 80013f4:	691b      	ldr	r3, [r3, #16]
 80013f6:	00db      	lsls	r3, r3, #3
 80013f8:	490e      	ldr	r1, [pc, #56]	; (8001434 <HAL_RCC_ClockConfig+0x1c4>)
 80013fa:	4313      	orrs	r3, r2
 80013fc:	604b      	str	r3, [r1, #4]
 80013fe:	f000 f821 	bl	8001444 <HAL_RCC_GetSysClockFreq>
 8001402:	4601      	mov	r1, r0
 8001404:	4b0b      	ldr	r3, [pc, #44]	; (8001434 <HAL_RCC_ClockConfig+0x1c4>)
 8001406:	685b      	ldr	r3, [r3, #4]
 8001408:	091b      	lsrs	r3, r3, #4
 800140a:	f003 030f 	and.w	r3, r3, #15
 800140e:	4a0a      	ldr	r2, [pc, #40]	; (8001438 <HAL_RCC_ClockConfig+0x1c8>)
 8001410:	5cd3      	ldrb	r3, [r2, r3]
 8001412:	fa21 f303 	lsr.w	r3, r1, r3
 8001416:	4a09      	ldr	r2, [pc, #36]	; (800143c <HAL_RCC_ClockConfig+0x1cc>)
 8001418:	6013      	str	r3, [r2, #0]
 800141a:	4b09      	ldr	r3, [pc, #36]	; (8001440 <HAL_RCC_ClockConfig+0x1d0>)
 800141c:	681b      	ldr	r3, [r3, #0]
 800141e:	4618      	mov	r0, r3
 8001420:	f7ff fb76 	bl	8000b10 <HAL_InitTick>
 8001424:	2300      	movs	r3, #0
 8001426:	4618      	mov	r0, r3
 8001428:	3710      	adds	r7, #16
 800142a:	46bd      	mov	sp, r7
 800142c:	bd80      	pop	{r7, pc}
 800142e:	bf00      	nop
 8001430:	40022000 	.word	0x40022000
 8001434:	40021000 	.word	0x40021000
 8001438:	08001c24 	.word	0x08001c24
 800143c:	20000000 	.word	0x20000000
 8001440:	20000004 	.word	0x20000004

08001444 <HAL_RCC_GetSysClockFreq>:
 8001444:	b490      	push	{r4, r7}
 8001446:	b08a      	sub	sp, #40	; 0x28
 8001448:	af00      	add	r7, sp, #0
 800144a:	4b2a      	ldr	r3, [pc, #168]	; (80014f4 <HAL_RCC_GetSysClockFreq+0xb0>)
 800144c:	1d3c      	adds	r4, r7, #4
 800144e:	cb0f      	ldmia	r3, {r0, r1, r2, r3}
 8001450:	e884 000f 	stmia.w	r4, {r0, r1, r2, r3}
 8001454:	4b28      	ldr	r3, [pc, #160]	; (80014f8 <HAL_RCC_GetSysClockFreq+0xb4>)
 8001456:	881b      	ldrh	r3, [r3, #0]
 8001458:	803b      	strh	r3, [r7, #0]
 800145a:	2300      	movs	r3, #0
 800145c:	61fb      	str	r3, [r7, #28]
 800145e:	2300      	movs	r3, #0
 8001460:	61bb      	str	r3, [r7, #24]
 8001462:	2300      	movs	r3, #0
 8001464:	627b      	str	r3, [r7, #36]	; 0x24
 8001466:	2300      	movs	r3, #0
 8001468:	617b      	str	r3, [r7, #20]
 800146a:	2300      	movs	r3, #0
 800146c:	623b      	str	r3, [r7, #32]
 800146e:	4b23      	ldr	r3, [pc, #140]	; (80014fc <HAL_RCC_GetSysClockFreq+0xb8>)
 8001470:	685b      	ldr	r3, [r3, #4]
 8001472:	61fb      	str	r3, [r7, #28]
 8001474:	69fb      	ldr	r3, [r7, #28]
 8001476:	f003 030c 	and.w	r3, r3, #12
 800147a:	2b04      	cmp	r3, #4
 800147c:	d002      	beq.n	8001484 <HAL_RCC_GetSysClockFreq+0x40>
 800147e:	2b08      	cmp	r3, #8
 8001480:	d003      	beq.n	800148a <HAL_RCC_GetSysClockFreq+0x46>
 8001482:	e02d      	b.n	80014e0 <HAL_RCC_GetSysClockFreq+0x9c>
 8001484:	4b1e      	ldr	r3, [pc, #120]	; (8001500 <HAL_RCC_GetSysClockFreq+0xbc>)
 8001486:	623b      	str	r3, [r7, #32]
 8001488:	e02d      	b.n	80014e6 <HAL_RCC_GetSysClockFreq+0xa2>
 800148a:	69fb      	ldr	r3, [r7, #28]
 800148c:	0c9b      	lsrs	r3, r3, #18
 800148e:	f003 030f 	and.w	r3, r3, #15
 8001492:	f107 0228 	add.w	r2, r7, #40	; 0x28
 8001496:	4413      	add	r3, r2
 8001498:	f813 3c24 	ldrb.w	r3, [r3, #-36]
 800149c:	617b      	str	r3, [r7, #20]
 800149e:	69fb      	ldr	r3, [r7, #28]
 80014a0:	f403 3380 	and.w	r3, r3, #65536	; 0x10000
 80014a4:	2b00      	cmp	r3, #0
 80014a6:	d013      	beq.n	80014d0 <HAL_RCC_GetSysClockFreq+0x8c>
 80014a8:	4b14      	ldr	r3, [pc, #80]	; (80014fc <HAL_RCC_GetSysClockFreq+0xb8>)
 80014aa:	685b      	ldr	r3, [r3, #4]
 80014ac:	0c5b      	lsrs	r3, r3, #17
 80014ae:	f003 0301 	and.w	r3, r3, #1
 80014b2:	f107 0228 	add.w	r2, r7, #40	; 0x28
 80014b6:	4413      	add	r3, r2
 80014b8:	f813 3c28 	ldrb.w	r3, [r3, #-40]
 80014bc:	61bb      	str	r3, [r7, #24]
 80014be:	697b      	ldr	r3, [r7, #20]
 80014c0:	4a0f      	ldr	r2, [pc, #60]	; (8001500 <HAL_RCC_GetSysClockFreq+0xbc>)
 80014c2:	fb02 f203 	mul.w	r2, r2, r3
 80014c6:	69bb      	ldr	r3, [r7, #24]
 80014c8:	fbb2 f3f3 	udiv	r3, r2, r3
 80014cc:	627b      	str	r3, [r7, #36]	; 0x24
 80014ce:	e004      	b.n	80014da <HAL_RCC_GetSysClockFreq+0x96>
 80014d0:	697b      	ldr	r3, [r7, #20]
 80014d2:	4a0c      	ldr	r2, [pc, #48]	; (8001504 <HAL_RCC_GetSysClockFreq+0xc0>)
 80014d4:	fb02 f303 	mul.w	r3, r2, r3
 80014d8:	627b      	str	r3, [r7, #36]	; 0x24
 80014da:	6a7b      	ldr	r3, [r7, #36]	; 0x24
 80014dc:	623b      	str	r3, [r7, #32]
 80014de:	e002      	b.n	80014e6 <HAL_RCC_GetSysClockFreq+0xa2>
 80014e0:	4b07      	ldr	r3, [pc, #28]	; (8001500 <HAL_RCC_GetSysClockFreq+0xbc>)
 80014e2:	623b      	str	r3, [r7, #32]
 80014e4:	bf00      	nop
 80014e6:	6a3b      	ldr	r3, [r7, #32]
 80014e8:	4618      	mov	r0, r3
 80014ea:	3728      	adds	r7, #40	; 0x28
 80014ec:	46bd      	mov	sp, r7
 80014ee:	bc90      	pop	{r4, r7}
 80014f0:	4770      	bx	lr
 80014f2:	bf00      	nop
 80014f4:	08001c10 	.word	0x08001c10
 80014f8:	08001c20 	.word	0x08001c20
 80014fc:	40021000 	.word	0x40021000
 8001500:	007a1200 	.word	0x007a1200
 8001504:	003d0900 	.word	0x003d0900

08001508 <RCC_Delay>:
 8001508:	b480      	push	{r7}
 800150a:	b085      	sub	sp, #20
 800150c:	af00      	add	r7, sp, #0
 800150e:	6078      	str	r0, [r7, #4]
 8001510:	4b0a      	ldr	r3, [pc, #40]	; (800153c <RCC_Delay+0x34>)
 8001512:	681b      	ldr	r3, [r3, #0]
 8001514:	4a0a      	ldr	r2, [pc, #40]	; (8001540 <RCC_Delay+0x38>)
 8001516:	fba2 2303 	umull	r2, r3, r2, r3
 800151a:	0a5b      	lsrs	r3, r3, #9
 800151c:	687a      	ldr	r2, [r7, #4]
 800151e:	fb02 f303 	mul.w	r3, r2, r3
 8001522:	60fb      	str	r3, [r7, #12]
 8001524:	bf00      	nop
 8001526:	68fb      	ldr	r3, [r7, #12]
 8001528:	1e5a      	subs	r2, r3, #1
 800152a:	60fa      	str	r2, [r7, #12]
 800152c:	2b00      	cmp	r3, #0
 800152e:	d1f9      	bne.n	8001524 <RCC_Delay+0x1c>
 8001530:	bf00      	nop
 8001532:	3714      	adds	r7, #20
 8001534:	46bd      	mov	sp, r7
 8001536:	bc80      	pop	{r7}
 8001538:	4770      	bx	lr
 800153a:	bf00      	nop
 800153c:	20000000 	.word	0x20000000
 8001540:	10624dd3 	.word	0x10624dd3

08001544 <__libc_init_array>:
 8001544:	b570      	push	{r4, r5, r6, lr}
 8001546:	2500      	movs	r5, #0
 8001548:	4e0c      	ldr	r6, [pc, #48]	; (800157c <__libc_init_array+0x38>)
 800154a:	4c0d      	ldr	r4, [pc, #52]	; (8001580 <__libc_init_array+0x3c>)
 800154c:	1ba4      	subs	r4, r4, r6
 800154e:	10a4      	asrs	r4, r4, #2
 8001550:	42a5      	cmp	r5, r4
 8001552:	d109      	bne.n	8001568 <__libc_init_array+0x24>
 8001554:	f000 f83c 	bl	80015d0 <_init>
 8001558:	2500      	movs	r5, #0
 800155a:	4e0a      	ldr	r6, [pc, #40]	; (8001584 <__libc_init_array+0x40>)
 800155c:	4c0a      	ldr	r4, [pc, #40]	; (8001588 <__libc_init_array+0x44>)
 800155e:	1ba4      	subs	r4, r4, r6
 8001560:	10a4      	asrs	r4, r4, #2
 8001562:	42a5      	cmp	r5, r4
 8001564:	d105      	bne.n	8001572 <__libc_init_array+0x2e>
 8001566:	bd70      	pop	{r4, r5, r6, pc}
 8001568:	f856 3025 	ldr.w	r3, [r6, r5, lsl #2]
 800156c:	4798      	blx	r3
 800156e:	3501      	adds	r5, #1
 8001570:	e7ee      	b.n	8001550 <__libc_init_array+0xc>
 8001572:	f856 3025 	ldr.w	r3, [r6, r5, lsl #2]
 8001576:	4798      	blx	r3
 8001578:	3501      	adds	r5, #1
 800157a:	e7f2      	b.n	8001562 <__libc_init_array+0x1e>
 800157c:	08001c34 	.word	0x08001c34
 8001580:	08001c34 	.word	0x08001c34
 8001584:	08001c34 	.word	0x08001c34
 8001588:	08001c38 	.word	0x08001c38

0800158c <memcmp>:
 800158c:	b530      	push	{r4, r5, lr}
 800158e:	2400      	movs	r4, #0
 8001590:	42a2      	cmp	r2, r4
 8001592:	d101      	bne.n	8001598 <memcmp+0xc>
 8001594:	2000      	movs	r0, #0
 8001596:	e007      	b.n	80015a8 <memcmp+0x1c>
 8001598:	5d03      	ldrb	r3, [r0, r4]
 800159a:	3401      	adds	r4, #1
 800159c:	190d      	adds	r5, r1, r4
 800159e:	f815 5c01 	ldrb.w	r5, [r5, #-1]
 80015a2:	42ab      	cmp	r3, r5
 80015a4:	d0f4      	beq.n	8001590 <memcmp+0x4>
 80015a6:	1b58      	subs	r0, r3, r5
 80015a8:	bd30      	pop	{r4, r5, pc}

080015aa <memcpy>:
 80015aa:	b510      	push	{r4, lr}
 80015ac:	1e43      	subs	r3, r0, #1
 80015ae:	440a      	add	r2, r1
 80015b0:	4291      	cmp	r1, r2
 80015b2:	d100      	bne.n	80015b6 <memcpy+0xc>
 80015b4:	bd10      	pop	{r4, pc}
 80015b6:	f811 4b01 	ldrb.w	r4, [r1], #1
 80015ba:	f803 4f01 	strb.w	r4, [r3, #1]!
 80015be:	e7f7      	b.n	80015b0 <memcpy+0x6>

080015c0 <memset>:
 80015c0:	4603      	mov	r3, r0
 80015c2:	4402      	add	r2, r0
 80015c4:	4293      	cmp	r3, r2
 80015c6:	d100      	bne.n	80015ca <memset+0xa>
 80015c8:	4770      	bx	lr
 80015ca:	f803 1b01 	strb.w	r1, [r3], #1
 80015ce:	e7f9      	b.n	80015c4 <memset+0x4>

080015d0 <_init>:
 80015d0:	b5f8      	push	{r3, r4, r5, r6, r7, lr}
 80015d2:	bf00      	nop
 80015d4:	bcf8      	pop	{r3, r4, r5, r6, r7}
 80015d6:	bc08      	pop	{r3}
 80015d8:	469e      	mov	lr, r3
 80015da:	4770      	bx	lr

080015dc <_fini>:
 80015dc:	b5f8      	push	{r3, r4, r5, r6, r7, lr}
 80015de:	bf00      	nop
 80015e0:	bcf8      	pop	{r3, r4, r5, r6, r7}
 80015e2:	bc08      	pop	{r3}
 80015e4:	469e      	mov	lr, r3
 80015e6:	4770      	bx	lr
